(dp0
I0
(dp1
S'H-H'
p2
(lp3
ccopy_reg
_reconstructor
p4
(c__main__
Ph4InteractionInformation
p5
c__builtin__
object
p6
Ntp7
Rp8
(dp9
S'lig_atom'
p10
(lp11
S'C:6560'
p12
aS'C:6561'
p13
aS'C:6562'
p14
asS'env_atom'
p15
(lp16
S'C:2274'
p17
aS'C:2275'
p18
aS'C:2276'
p19
aS'N:2277'
p20
aS'C:2278'
p21
asS'env_residue'
p22
S'TRP_162_A'
p23
sS'lig_residue'
p24
S'LIG_5_A'
p25
sS'interaction_type'
p26
g2
sbag4
(g5
g6
Ntp27
Rp28
(dp29
g10
(lp30
S'C:6560'
p31
aS'C:6561'
p32
aS'C:6562'
p33
asg15
(lp34
S'C:1890'
p35
aS'C:1891'
p36
aS'C:1892'
p37
aS'C:1893'
p38
aS'C:1894'
p39
aS'C:1895'
p40
asg22
S'PHE_138_A'
p41
sg24
S'LIG_5_A'
p42
sg26
S'H-H'
p43
sbag4
(g5
g6
Ntp44
Rp45
(dp46
g10
(lp47
S'C:6560'
p48
aS'C:6561'
p49
aS'C:6562'
p50
asg15
(lp51
S'C:2276'
p52
aS'C:2278'
p53
aS'C:2279'
p54
aS'C:2280'
p55
aS'C:2281'
p56
aS'C:2282'
p57
asg22
S'TRP_162_A'
p58
sg24
S'LIG_5_A'
p59
sg26
S'H-H'
p60
sbag4
(g5
g6
Ntp61
Rp62
(dp63
g10
(lp64
S'C:6560'
p65
aS'C:6561'
p66
aS'C:6562'
p67
asg15
(lp68
S'C:1392'
p69
aS'C:1393'
p70
aS'C:1394'
p71
asg22
S'LEU_103_A'
p72
sg24
S'LIG_5_A'
p73
sg26
S'H-H'
p74
sbag4
(g5
g6
Ntp75
Rp76
(dp77
g10
(lp78
S'C:6560'
p79
aS'C:6561'
p80
aS'C:6562'
p81
asg15
(lp82
S'C:1458'
p83
aS'C:1459'
p84
aS'C:1460'
p85
asg22
S'LEU_107_A'
p86
sg24
S'LIG_5_A'
p87
sg26
S'H-H'
p88
sbag4
(g5
g6
Ntp89
Rp90
(dp91
g10
(lp92
S'C:6560'
p93
aS'C:6561'
p94
aS'C:6562'
p95
asg15
(lp96
S'C:2084'
p97
aS'C:2085'
p98
aS'C:2086'
p99
asg22
S'VAL_150_A'
p100
sg24
S'LIG_5_A'
p101
sg26
S'H-H'
p102
sbag4
(g5
g6
Ntp103
Rp104
(dp105
g10
(lp106
S'C:6560'
p107
aS'C:6561'
p108
aS'C:6562'
p109
asg15
(lp110
S'C:1319'
p111
asg22
S'MET_98_A'
p112
sg24
S'LIG_5_A'
p113
sg26
S'H-H'
p114
sbag4
(g5
g6
Ntp115
Rp116
(dp117
g10
(lp118
S'C:6560'
p119
aS'C:6561'
p120
aS'C:6562'
p121
asg15
(lp122
S'S:1318'
p123
asg22
S'MET_98_A'
p124
sg24
S'LIG_5_A'
p125
sg26
S'H-H'
p126
sbag4
(g5
g6
Ntp127
Rp128
(dp129
g10
(lp130
S'C:6560'
p131
aS'C:6561'
p132
aS'C:6562'
p133
asg15
(lp134
S'C:1391'
p135
asg22
S'LEU_103_A'
p136
sg24
S'LIG_5_A'
p137
sg26
S'H-H'
p138
sbag4
(g5
g6
Ntp139
Rp140
(dp141
g10
(lp142
S'C:6560'
p143
aS'C:6561'
p144
aS'C:6562'
p145
asg15
(lp146
S'C:1457'
p147
asg22
S'LEU_107_A'
p148
sg24
S'LIG_5_A'
p149
sg26
S'H-H'
p150
sbag4
(g5
g6
Ntp151
Rp152
(dp153
g10
(lp154
S'C:6560'
p155
aS'C:6561'
p156
aS'C:6562'
p157
asg15
(lp158
S'C:1889'
p159
asg22
S'PHE_138_A'
p160
sg24
S'LIG_5_A'
p161
sg26
S'H-H'
p162
sbag4
(g5
g6
Ntp163
Rp164
(dp165
g10
(lp166
S'C:6552'
p167
aS'C:6558'
p168
aS'C:6559'
p169
aS'C:6560'
p170
asg15
(lp171
S'C:2274'
p172
aS'C:2275'
p173
aS'C:2276'
p174
aS'N:2277'
p175
aS'C:2278'
p176
asg22
S'TRP_162_A'
p177
sg24
S'LIG_5_A'
p178
sg26
S'H-H'
p179
sbag4
(g5
g6
Ntp180
Rp181
(dp182
g10
(lp183
S'C:6552'
p184
aS'C:6558'
p185
aS'C:6559'
p186
aS'C:6560'
p187
asg15
(lp188
S'C:1890'
p189
aS'C:1891'
p190
aS'C:1892'
p191
aS'C:1893'
p192
aS'C:1894'
p193
aS'C:1895'
p194
asg22
S'PHE_138_A'
p195
sg24
S'LIG_5_A'
p196
sg26
S'H-H'
p197
sbag4
(g5
g6
Ntp198
Rp199
(dp200
g10
(lp201
S'C:6552'
p202
aS'C:6558'
p203
aS'C:6559'
p204
aS'C:6560'
p205
asg15
(lp206
S'C:1910'
p207
aS'C:1911'
p208
aS'C:1912'
p209
aS'C:1913'
p210
aS'C:1914'
p211
aS'C:1915'
p212
asg22
S'TYR_139_A'
p213
sg24
S'LIG_5_A'
p214
sg26
S'H-H'
p215
sbag4
(g5
g6
Ntp216
Rp217
(dp218
g10
(lp219
S'C:6552'
p220
aS'C:6558'
p221
aS'C:6559'
p222
aS'C:6560'
p223
asg15
(lp224
S'C:2276'
p225
aS'C:2278'
p226
aS'C:2279'
p227
aS'C:2280'
p228
aS'C:2281'
p229
aS'C:2282'
p230
asg22
S'TRP_162_A'
p231
sg24
S'LIG_5_A'
p232
sg26
S'H-H'
p233
sbag4
(g5
g6
Ntp234
Rp235
(dp236
g10
(lp237
S'C:6552'
p238
aS'C:6558'
p239
aS'C:6559'
p240
aS'C:6560'
p241
asg15
(lp242
S'C:1458'
p243
aS'C:1459'
p244
aS'C:1460'
p245
asg22
S'LEU_107_A'
p246
sg24
S'LIG_5_A'
p247
sg26
S'H-H'
p248
sbag4
(g5
g6
Ntp249
Rp250
(dp251
g10
(lp252
S'C:6552'
p253
aS'C:6558'
p254
aS'C:6559'
p255
aS'C:6560'
p256
asg15
(lp257
S'S:1318'
p258
asg22
S'MET_98_A'
p259
sg24
S'LIG_5_A'
p260
sg26
S'H-H'
p261
sbag4
(g5
g6
Ntp262
Rp263
(dp264
g10
(lp265
S'C:6552'
p266
aS'C:6558'
p267
aS'C:6559'
p268
aS'C:6560'
p269
asg15
(lp270
S'C:1457'
p271
asg22
S'LEU_107_A'
p272
sg24
S'LIG_5_A'
p273
sg26
S'H-H'
p274
sbag4
(g5
g6
Ntp275
Rp276
(dp277
g10
(lp278
S'C:6552'
p279
aS'C:6558'
p280
aS'C:6559'
p281
aS'C:6560'
p282
asg15
(lp283
S'C:1889'
p284
asg22
S'PHE_138_A'
p285
sg24
S'LIG_5_A'
p286
sg26
S'H-H'
p287
sbag4
(g5
g6
Ntp288
Rp289
(dp290
g10
(lp291
S'C:6552'
p292
aS'C:6557'
p293
aS'C:6558'
p294
aS'C:6560'
p295
aS'C:6562'
p296
asg15
(lp297
S'C:2274'
p298
aS'C:2275'
p299
aS'C:2276'
p300
aS'N:2277'
p301
aS'C:2278'
p302
asg22
S'TRP_162_A'
p303
sg24
S'LIG_5_A'
p304
sg26
S'H-H'
p305
sbag4
(g5
g6
Ntp306
Rp307
(dp308
g10
(lp309
S'C:6552'
p310
aS'C:6557'
p311
aS'C:6558'
p312
aS'C:6560'
p313
aS'C:6562'
p314
asg15
(lp315
S'C:1890'
p316
aS'C:1891'
p317
aS'C:1892'
p318
aS'C:1893'
p319
aS'C:1894'
p320
aS'C:1895'
p321
asg22
S'PHE_138_A'
p322
sg24
S'LIG_5_A'
p323
sg26
S'H-H'
p324
sbag4
(g5
g6
Ntp325
Rp326
(dp327
g10
(lp328
S'C:6552'
p329
aS'C:6557'
p330
aS'C:6558'
p331
aS'C:6560'
p332
aS'C:6562'
p333
asg15
(lp334
S'C:2276'
p335
aS'C:2278'
p336
aS'C:2279'
p337
aS'C:2280'
p338
aS'C:2281'
p339
aS'C:2282'
p340
asg22
S'TRP_162_A'
p341
sg24
S'LIG_5_A'
p342
sg26
S'H-H'
p343
sbag4
(g5
g6
Ntp344
Rp345
(dp346
g10
(lp347
S'C:6552'
p348
aS'C:6557'
p349
aS'C:6558'
p350
aS'C:6560'
p351
aS'C:6562'
p352
asg15
(lp353
S'C:1392'
p354
aS'C:1393'
p355
aS'C:1394'
p356
asg22
S'LEU_103_A'
p357
sg24
S'LIG_5_A'
p358
sg26
S'H-H'
p359
sbag4
(g5
g6
Ntp360
Rp361
(dp362
g10
(lp363
S'C:6552'
p364
aS'C:6557'
p365
aS'C:6558'
p366
aS'C:6560'
p367
aS'C:6562'
p368
asg15
(lp369
S'C:1458'
p370
aS'C:1459'
p371
aS'C:1460'
p372
asg22
S'LEU_107_A'
p373
sg24
S'LIG_5_A'
p374
sg26
S'H-H'
p375
sbag4
(g5
g6
Ntp376
Rp377
(dp378
g10
(lp379
S'C:6552'
p380
aS'C:6557'
p381
aS'C:6558'
p382
aS'C:6560'
p383
aS'C:6562'
p384
asg15
(lp385
S'C:2084'
p386
aS'C:2085'
p387
aS'C:2086'
p388
asg22
S'VAL_150_A'
p389
sg24
S'LIG_5_A'
p390
sg26
S'H-H'
p391
sbag4
(g5
g6
Ntp392
Rp393
(dp394
g10
(lp395
S'C:6552'
p396
aS'C:6557'
p397
aS'C:6558'
p398
aS'C:6560'
p399
aS'C:6562'
p400
asg15
(lp401
S'C:1319'
p402
asg22
S'MET_98_A'
p403
sg24
S'LIG_5_A'
p404
sg26
S'H-H'
p405
sbag4
(g5
g6
Ntp406
Rp407
(dp408
g10
(lp409
S'C:6552'
p410
aS'C:6557'
p411
aS'C:6558'
p412
aS'C:6560'
p413
aS'C:6562'
p414
asg15
(lp415
S'S:1318'
p416
asg22
S'MET_98_A'
p417
sg24
S'LIG_5_A'
p418
sg26
S'H-H'
p419
sbag4
(g5
g6
Ntp420
Rp421
(dp422
g10
(lp423
S'C:6552'
p424
aS'C:6557'
p425
aS'C:6558'
p426
aS'C:6560'
p427
aS'C:6562'
p428
asg15
(lp429
S'C:1317'
p430
asg22
S'MET_98_A'
p431
sg24
S'LIG_5_A'
p432
sg26
S'H-H'
p433
sbag4
(g5
g6
Ntp434
Rp435
(dp436
g10
(lp437
S'C:6552'
p438
aS'C:6557'
p439
aS'C:6558'
p440
aS'C:6560'
p441
aS'C:6562'
p442
asg15
(lp443
S'C:1457'
p444
asg22
S'LEU_107_A'
p445
sg24
S'LIG_5_A'
p446
sg26
S'H-H'
p447
sbag4
(g5
g6
Ntp448
Rp449
(dp450
g10
(lp451
S'C:6552'
p452
aS'C:6557'
p453
aS'C:6558'
p454
aS'C:6560'
p455
aS'C:6562'
p456
asg15
(lp457
S'C:1889'
p458
asg22
S'PHE_138_A'
p459
sg24
S'LIG_5_A'
p460
sg26
S'H-H'
p461
sbag4
(g5
g6
Ntp462
Rp463
(dp464
g10
(lp465
S'C:6549'
p466
aS'N:6550'
p467
aS'C:6555'
p468
aS'N:6556'
p469
aS'C:6557'
p470
aS'C:6558'
p471
asg15
(lp472
S'C:1890'
p473
aS'C:1891'
p474
aS'C:1892'
p475
aS'C:1893'
p476
aS'C:1894'
p477
aS'C:1895'
p478
asg22
S'PHE_138_A'
p479
sg24
S'LIG_5_A'
p480
sg26
S'H-H'
p481
sbag4
(g5
g6
Ntp482
Rp483
(dp484
g10
(lp485
S'C:6549'
p486
aS'N:6550'
p487
aS'C:6555'
p488
aS'N:6556'
p489
aS'C:6557'
p490
aS'C:6558'
p491
asg15
(lp492
S'C:1458'
p493
aS'C:1459'
p494
aS'C:1460'
p495
asg22
S'LEU_107_A'
p496
sg24
S'LIG_5_A'
p497
sg26
S'H-H'
p498
sbag4
(g5
g6
Ntp499
Rp500
(dp501
g10
(lp502
S'C:6549'
p503
aS'N:6550'
p504
aS'C:6555'
p505
aS'N:6556'
p506
aS'C:6557'
p507
aS'C:6558'
p508
asg15
(lp509
S'C:1319'
p510
asg22
S'MET_98_A'
p511
sg24
S'LIG_5_A'
p512
sg26
S'H-H'
p513
sbag4
(g5
g6
Ntp514
Rp515
(dp516
g10
(lp517
S'C:6549'
p518
aS'N:6550'
p519
aS'C:6555'
p520
aS'N:6556'
p521
aS'C:6557'
p522
aS'C:6558'
p523
asg15
(lp524
S'S:1318'
p525
asg22
S'MET_98_A'
p526
sg24
S'LIG_5_A'
p527
sg26
S'H-H'
p528
sbag4
(g5
g6
Ntp529
Rp530
(dp531
g10
(lp532
S'C:6549'
p533
aS'N:6550'
p534
aS'C:6555'
p535
aS'N:6556'
p536
aS'C:6557'
p537
aS'C:6558'
p538
asg15
(lp539
S'C:1457'
p540
asg22
S'LEU_107_A'
p541
sg24
S'LIG_5_A'
p542
sg26
S'H-H'
p543
sbag4
(g5
g6
Ntp544
Rp545
(dp546
g10
(lp547
S'C:6549'
p548
aS'N:6550'
p549
aS'C:6555'
p550
aS'N:6556'
p551
aS'C:6557'
p552
aS'C:6558'
p553
asg15
(lp554
S'C:1889'
p555
asg22
S'PHE_138_A'
p556
sg24
S'LIG_5_A'
p557
sg26
S'H-H'
p558
sbasS'PI-AR'
p559
(lp560
g4
(g5
g6
Ntp561
Rp562
(dp563
g10
(lp564
S'N:6553'
p565
asg15
(lp566
S'C:1890'
p567
aS'C:1891'
p568
aS'C:1892'
p569
aS'C:1893'
p570
aS'C:1894'
p571
aS'C:1895'
p572
asg22
S'PHE_138_A'
p573
sg24
S'LIG_5_A'
p574
sg26
g559
sbag4
(g5
g6
Ntp575
Rp576
(dp577
g10
(lp578
S'N:6553'
p579
asg15
(lp580
S'C:1910'
p581
aS'C:1911'
p582
aS'C:1912'
p583
aS'C:1913'
p584
aS'C:1914'
p585
aS'C:1915'
p586
asg22
S'TYR_139_A'
p587
sg24
S'LIG_5_A'
p588
sg26
S'PI-AR'
p589
sbass.