(dp0
I0
(dp1
S'PI-NI'
p2
(lp3
ccopy_reg
_reconstructor
p4
(c__main__
Ph4InteractionInformation
p5
c__builtin__
object
p6
Ntp7
Rp8
(dp9
S'lig_atom'
p10
(lp11
S'N:6519'
p12
asS'env_atom'
p13
(lp14
S'C:1243'
p15
aS'O:1244'
p16
aS'O:1245'
p17
asS'env_residue'
p18
S'ASP_93_A'
p19
sS'lig_residue'
p20
S'LIG_387_A'
p21
sS'interaction_type'
p22
g2
sbag4
(g5
g6
Ntp23
Rp24
(dp25
g10
(lp26
S'N:6524'
p27
asg13
(lp28
S'C:1243'
p29
aS'O:1244'
p30
aS'O:1245'
p31
asg18
S'ASP_93_A'
p32
sg20
S'LIG_387_A'
p33
sg22
S'PI-NI'
p34
sbasS'H-H'
p35
(lp36
g4
(g5
g6
Ntp37
Rp38
(dp39
g10
(lp40
S'C:6529'
p41
aS'C:6540'
p42
aS'C:6541'
p43
aS'C:6542'
p44
asg13
(lp45
S'C:1443'
p46
aS'C:1444'
p47
aS'C:1445'
p48
asg18
S'LEU_107_A'
p49
sg20
S'LIG_387_A'
p50
sg22
g35
sbag4
(g5
g6
Ntp51
Rp52
(dp53
g10
(lp54
S'C:6529'
p55
aS'C:6540'
p56
aS'C:6541'
p57
aS'C:6542'
p58
asg13
(lp59
S'C:1304'
p60
asg18
S'MET_98_A'
p61
sg20
S'LIG_387_A'
p62
sg22
S'H-H'
p63
sbag4
(g5
g6
Ntp64
Rp65
(dp66
g10
(lp67
S'C:6529'
p68
aS'C:6540'
p69
aS'C:6541'
p70
aS'C:6542'
p71
asg13
(lp72
S'S:1303'
p73
asg18
S'MET_98_A'
p74
sg20
S'LIG_387_A'
p75
sg22
S'H-H'
p76
sbag4
(g5
g6
Ntp77
Rp78
(dp79
g10
(lp80
S'C:6529'
p81
aS'C:6540'
p82
aS'C:6541'
p83
aS'C:6542'
p84
asg13
(lp85
S'C:1302'
p86
asg18
S'MET_98_A'
p87
sg20
S'LIG_387_A'
p88
sg22
S'H-H'
p89
sbag4
(g5
g6
Ntp90
Rp91
(dp92
g10
(lp93
S'C:6529'
p94
aS'C:6540'
p95
aS'C:6541'
p96
aS'C:6542'
p97
asg13
(lp98
S'C:1301'
p99
asg18
S'MET_98_A'
p100
sg20
S'LIG_387_A'
p101
sg22
S'H-H'
p102
sbag4
(g5
g6
Ntp103
Rp104
(dp105
g10
(lp106
S'C:6529'
p107
aS'C:6540'
p108
aS'C:6541'
p109
aS'C:6542'
p110
asg13
(lp111
S'C:1442'
p112
asg18
S'LEU_107_A'
p113
sg20
S'LIG_387_A'
p114
sg22
S'H-H'
p115
sbag4
(g5
g6
Ntp116
Rp117
(dp118
g10
(lp119
S'C:6535'
p120
aS'C:6536'
p121
aS'O:6538'
p122
aS'C:6539'
p123
asg13
(lp124
S'C:1875'
p125
aS'C:1876'
p126
aS'C:1877'
p127
aS'C:1878'
p128
aS'C:1879'
p129
aS'C:1880'
p130
asg18
S'PHE_138_A'
p131
sg20
S'LIG_387_A'
p132
sg22
S'H-H'
p133
sbag4
(g5
g6
Ntp134
Rp135
(dp136
g10
(lp137
S'C:6535'
p138
aS'C:6536'
p139
aS'O:6538'
p140
aS'C:6539'
p141
asg13
(lp142
S'C:1895'
p143
aS'C:1896'
p144
aS'C:1897'
p145
aS'C:1898'
p146
aS'C:1899'
p147
aS'C:1900'
p148
asg18
S'TYR_139_A'
p149
sg20
S'LIG_387_A'
p150
sg22
S'H-H'
p151
sbag4
(g5
g6
Ntp152
Rp153
(dp154
g10
(lp155
S'C:6535'
p156
aS'C:6536'
p157
aS'O:6538'
p158
aS'C:6539'
p159
asg13
(lp160
S'C:1443'
p161
aS'C:1444'
p162
aS'C:1445'
p163
asg18
S'LEU_107_A'
p164
sg20
S'LIG_387_A'
p165
sg22
S'H-H'
p166
sbag4
(g5
g6
Ntp167
Rp168
(dp169
g10
(lp170
S'C:6535'
p171
aS'C:6536'
p172
aS'O:6538'
p173
aS'C:6539'
p174
asg13
(lp175
S'C:1498'
p176
aS'C:1501'
p177
asg18
S'ALA_111_A'
p178
sg20
S'LIG_387_A'
p179
sg22
S'H-H'
p180
sbag4
(g5
g6
Ntp181
Rp182
(dp183
g10
(lp184
S'C:6535'
p185
aS'C:6536'
p186
aS'O:6538'
p187
aS'C:6539'
p188
asg13
(lp189
S'C:1442'
p190
asg18
S'LEU_107_A'
p191
sg20
S'LIG_387_A'
p192
sg22
S'H-H'
p193
sbag4
(g5
g6
Ntp194
Rp195
(dp196
g10
(lp197
S'C:6535'
p198
aS'C:6536'
p199
aS'O:6538'
p200
aS'C:6539'
p201
asg13
(lp202
S'C:1874'
p203
asg18
S'PHE_138_A'
p204
sg20
S'LIG_387_A'
p205
sg22
S'H-H'
p206
sbag4
(g5
g6
Ntp207
Rp208
(dp209
g10
(lp210
S'C:6526'
p211
aS'N:6527'
p212
aS'C:6528'
p213
aS'C:6529'
p214
aS'C:6540'
p215
asg13
(lp216
S'C:1443'
p217
aS'C:1444'
p218
aS'C:1445'
p219
asg18
S'LEU_107_A'
p220
sg20
S'LIG_387_A'
p221
sg22
S'H-H'
p222
sbag4
(g5
g6
Ntp223
Rp224
(dp225
g10
(lp226
S'C:6526'
p227
aS'N:6527'
p228
aS'C:6528'
p229
aS'C:6529'
p230
aS'C:6540'
p231
asg13
(lp232
S'C:1304'
p233
asg18
S'MET_98_A'
p234
sg20
S'LIG_387_A'
p235
sg22
S'H-H'
p236
sbag4
(g5
g6
Ntp237
Rp238
(dp239
g10
(lp240
S'C:6526'
p241
aS'N:6527'
p242
aS'C:6528'
p243
aS'C:6529'
p244
aS'C:6540'
p245
asg13
(lp246
S'S:1303'
p247
asg18
S'MET_98_A'
p248
sg20
S'LIG_387_A'
p249
sg22
S'H-H'
p250
sbag4
(g5
g6
Ntp251
Rp252
(dp253
g10
(lp254
S'C:6526'
p255
aS'N:6527'
p256
aS'C:6528'
p257
aS'C:6529'
p258
aS'C:6540'
p259
asg13
(lp260
S'C:1302'
p261
asg18
S'MET_98_A'
p262
sg20
S'LIG_387_A'
p263
sg22
S'H-H'
p264
sbag4
(g5
g6
Ntp265
Rp266
(dp267
g10
(lp268
S'C:6526'
p269
aS'N:6527'
p270
aS'C:6528'
p271
aS'C:6529'
p272
aS'C:6540'
p273
asg13
(lp274
S'C:1301'
p275
asg18
S'MET_98_A'
p276
sg20
S'LIG_387_A'
p277
sg22
S'H-H'
p278
sbag4
(g5
g6
Ntp279
Rp280
(dp281
g10
(lp282
S'C:6526'
p283
aS'N:6527'
p284
aS'C:6528'
p285
aS'C:6529'
p286
aS'C:6540'
p287
asg13
(lp288
S'C:1442'
p289
asg18
S'LEU_107_A'
p290
sg20
S'LIG_387_A'
p291
sg22
S'H-H'
p292
sbag4
(g5
g6
Ntp293
Rp294
(dp295
g10
(lp296
S'N:6522'
p297
aS'C:6523'
p298
aS'C:6525'
p299
aS'C:6526'
p300
aS'N:6527'
p301
aS'C:6528'
p302
asg13
(lp303
S'C:616'
p304
aS'C:619'
p305
asg18
S'ALA_55_A'
p306
sg20
S'LIG_387_A'
p307
sg22
S'H-H'
p308
sbag4
(g5
g6
Ntp309
Rp310
(dp311
g10
(lp312
S'N:6522'
p313
aS'C:6523'
p314
aS'C:6525'
p315
aS'C:6526'
p316
aS'N:6527'
p317
aS'C:6528'
p318
asg13
(lp319
S'C:1443'
p320
aS'C:1444'
p321
aS'C:1445'
p322
asg18
S'LEU_107_A'
p323
sg20
S'LIG_387_A'
p324
sg22
S'H-H'
p325
sbag4
(g5
g6
Ntp326
Rp327
(dp328
g10
(lp329
S'N:6522'
p330
aS'C:6523'
p331
aS'C:6525'
p332
aS'C:6526'
p333
aS'N:6527'
p334
aS'C:6528'
p335
asg13
(lp336
S'C:1304'
p337
asg18
S'MET_98_A'
p338
sg20
S'LIG_387_A'
p339
sg22
S'H-H'
p340
sbag4
(g5
g6
Ntp341
Rp342
(dp343
g10
(lp344
S'N:6522'
p345
aS'C:6523'
p346
aS'C:6525'
p347
aS'C:6526'
p348
aS'N:6527'
p349
aS'C:6528'
p350
asg13
(lp351
S'S:1303'
p352
asg18
S'MET_98_A'
p353
sg20
S'LIG_387_A'
p354
sg22
S'H-H'
p355
sbag4
(g5
g6
Ntp356
Rp357
(dp358
g10
(lp359
S'N:6522'
p360
aS'C:6523'
p361
aS'C:6525'
p362
aS'C:6526'
p363
aS'N:6527'
p364
aS'C:6528'
p365
asg13
(lp366
S'C:1302'
p367
asg18
S'MET_98_A'
p368
sg20
S'LIG_387_A'
p369
sg22
S'H-H'
p370
sbag4
(g5
g6
Ntp371
Rp372
(dp373
g10
(lp374
S'N:6522'
p375
aS'C:6523'
p376
aS'C:6525'
p377
aS'C:6526'
p378
aS'N:6527'
p379
aS'C:6528'
p380
asg13
(lp381
S'C:1301'
p382
asg18
S'MET_98_A'
p383
sg20
S'LIG_387_A'
p384
sg22
S'H-H'
p385
sbag4
(g5
g6
Ntp386
Rp387
(dp388
g10
(lp389
S'C:6525'
p390
aS'C:6526'
p391
aS'C:6540'
p392
aS'C:6541'
p393
aS'C:6542'
p394
aS'C:6543'
p395
asg13
(lp396
S'C:616'
p397
aS'C:619'
p398
asg18
S'ALA_55_A'
p399
sg20
S'LIG_387_A'
p400
sg22
S'H-H'
p401
sbag4
(g5
g6
Ntp402
Rp403
(dp404
g10
(lp405
S'C:6525'
p406
aS'C:6526'
p407
aS'C:6540'
p408
aS'C:6541'
p409
aS'C:6542'
p410
aS'C:6543'
p411
asg13
(lp412
S'C:1443'
p413
aS'C:1444'
p414
aS'C:1445'
p415
asg18
S'LEU_107_A'
p416
sg20
S'LIG_387_A'
p417
sg22
S'H-H'
p418
sbag4
(g5
g6
Ntp419
Rp420
(dp421
g10
(lp422
S'C:6525'
p423
aS'C:6526'
p424
aS'C:6540'
p425
aS'C:6541'
p426
aS'C:6542'
p427
aS'C:6543'
p428
asg13
(lp429
S'C:1304'
p430
asg18
S'MET_98_A'
p431
sg20
S'LIG_387_A'
p432
sg22
S'H-H'
p433
sbag4
(g5
g6
Ntp434
Rp435
(dp436
g10
(lp437
S'C:6525'
p438
aS'C:6526'
p439
aS'C:6540'
p440
aS'C:6541'
p441
aS'C:6542'
p442
aS'C:6543'
p443
asg13
(lp444
S'S:1303'
p445
asg18
S'MET_98_A'
p446
sg20
S'LIG_387_A'
p447
sg22
S'H-H'
p448
sbag4
(g5
g6
Ntp449
Rp450
(dp451
g10
(lp452
S'C:6525'
p453
aS'C:6526'
p454
aS'C:6540'
p455
aS'C:6541'
p456
aS'C:6542'
p457
aS'C:6543'
p458
asg13
(lp459
S'C:1302'
p460
asg18
S'MET_98_A'
p461
sg20
S'LIG_387_A'
p462
sg22
S'H-H'
p463
sbag4
(g5
g6
Ntp464
Rp465
(dp466
g10
(lp467
S'C:6525'
p468
aS'C:6526'
p469
aS'C:6540'
p470
aS'C:6541'
p471
aS'C:6542'
p472
aS'C:6543'
p473
asg13
(lp474
S'C:1301'
p475
asg18
S'MET_98_A'
p476
sg20
S'LIG_387_A'
p477
sg22
S'H-H'
p478
sbag4
(g5
g6
Ntp479
Rp480
(dp481
g10
(lp482
S'C:6530'
p483
aS'C:6531'
p484
aS'C:6532'
p485
aS'C:6535'
p486
aS'C:6536'
p487
aS'C:6537'
p488
asg13
(lp489
S'C:1875'
p490
aS'C:1876'
p491
aS'C:1877'
p492
aS'C:1878'
p493
aS'C:1879'
p494
aS'C:1880'
p495
asg18
S'PHE_138_A'
p496
sg20
S'LIG_387_A'
p497
sg22
S'H-H'
p498
sbag4
(g5
g6
Ntp499
Rp500
(dp501
g10
(lp502
S'C:6530'
p503
aS'C:6531'
p504
aS'C:6532'
p505
aS'C:6535'
p506
aS'C:6536'
p507
aS'C:6537'
p508
asg13
(lp509
S'C:1443'
p510
aS'C:1444'
p511
aS'C:1445'
p512
asg18
S'LEU_107_A'
p513
sg20
S'LIG_387_A'
p514
sg22
S'H-H'
p515
sbag4
(g5
g6
Ntp516
Rp517
(dp518
g10
(lp519
S'C:6530'
p520
aS'C:6531'
p521
aS'C:6532'
p522
aS'C:6535'
p523
aS'C:6536'
p524
aS'C:6537'
p525
asg13
(lp526
S'C:1304'
p527
asg18
S'MET_98_A'
p528
sg20
S'LIG_387_A'
p529
sg22
S'H-H'
p530
sbag4
(g5
g6
Ntp531
Rp532
(dp533
g10
(lp534
S'C:6530'
p535
aS'C:6531'
p536
aS'C:6532'
p537
aS'C:6535'
p538
aS'C:6536'
p539
aS'C:6537'
p540
asg13
(lp541
S'S:1303'
p542
asg18
S'MET_98_A'
p543
sg20
S'LIG_387_A'
p544
sg22
S'H-H'
p545
sbag4
(g5
g6
Ntp546
Rp547
(dp548
g10
(lp549
S'C:6530'
p550
aS'C:6531'
p551
aS'C:6532'
p552
aS'C:6535'
p553
aS'C:6536'
p554
aS'C:6537'
p555
asg13
(lp556
S'C:1442'
p557
asg18
S'LEU_107_A'
p558
sg20
S'LIG_387_A'
p559
sg22
S'H-H'
p560
sbag4
(g5
g6
Ntp561
Rp562
(dp563
g10
(lp564
S'C:6530'
p565
aS'C:6531'
p566
aS'C:6532'
p567
aS'C:6535'
p568
aS'C:6536'
p569
aS'C:6537'
p570
asg13
(lp571
S'C:1874'
p572
asg18
S'PHE_138_A'
p573
sg20
S'LIG_387_A'
p574
sg22
S'H-H'
p575
sbasS'HBA-HBD'
p576
(lp577
g4
(g5
g6
Ntp578
Rp579
(dp580
g10
(lp581
S'O:6538'
p582
asg13
(lp583
S'O:1901'
p584
asg18
S'TYR_139_A'
p585
sg20
S'LIG_387_A'
p586
sg22
g576
sbass.