(dp0
I0
(dp1
S'PI-NI'
p2
(lp3
ccopy_reg
_reconstructor
p4
(c__main__
Ph4InteractionInformation
p5
c__builtin__
object
p6
Ntp7
Rp8
(dp9
S'lig_atom'
p10
(lp11
S'N:3260'
p12
asS'env_atom'
p13
(lp14
S'C:1243'
p15
aS'O:1244'
p16
aS'O:1245'
p17
asS'env_residue'
p18
S'ASP_93_A'
p19
sS'lig_residue'
p20
S'LIG_2_A'
p21
sS'interaction_type'
p22
g2
sbag4
(g5
g6
Ntp23
Rp24
(dp25
g10
(lp26
S'N:3265'
p27
asg13
(lp28
S'C:1243'
p29
aS'O:1244'
p30
aS'O:1245'
p31
asg18
S'ASP_93_A'
p32
sg20
S'LIG_2_A'
p33
sg22
S'PI-NI'
p34
sbasS'H-H'
p35
(lp36
g4
(g5
g6
Ntp37
Rp38
(dp39
g10
(lp40
S'C:3274'
p41
aS'C:3275'
p42
aS'C:3276'
p43
asg13
(lp44
S'C:2259'
p45
aS'C:2260'
p46
aS'C:2261'
p47
aS'N:2262'
p48
aS'C:2263'
p49
asg18
S'TRP_162_A'
p50
sg20
S'LIG_2_A'
p51
sg22
g35
sbag4
(g5
g6
Ntp52
Rp53
(dp54
g10
(lp55
S'C:3274'
p56
aS'C:3275'
p57
aS'C:3276'
p58
asg13
(lp59
S'C:1875'
p60
aS'C:1876'
p61
aS'C:1877'
p62
aS'C:1878'
p63
aS'C:1879'
p64
aS'C:1880'
p65
asg18
S'PHE_138_A'
p66
sg20
S'LIG_2_A'
p67
sg22
S'H-H'
p68
sbag4
(g5
g6
Ntp69
Rp70
(dp71
g10
(lp72
S'C:3274'
p73
aS'C:3275'
p74
aS'C:3276'
p75
asg13
(lp76
S'C:1895'
p77
aS'C:1896'
p78
aS'C:1897'
p79
aS'C:1898'
p80
aS'C:1899'
p81
aS'C:1900'
p82
asg18
S'TYR_139_A'
p83
sg20
S'LIG_2_A'
p84
sg22
S'H-H'
p85
sbag4
(g5
g6
Ntp86
Rp87
(dp88
g10
(lp89
S'C:3274'
p90
aS'C:3275'
p91
aS'C:3276'
p92
asg13
(lp93
S'C:2261'
p94
aS'C:2263'
p95
aS'C:2264'
p96
aS'C:2265'
p97
aS'C:2266'
p98
aS'C:2267'
p99
asg18
S'TRP_162_A'
p100
sg20
S'LIG_2_A'
p101
sg22
S'H-H'
p102
sbag4
(g5
g6
Ntp103
Rp104
(dp105
g10
(lp106
S'C:3274'
p107
aS'C:3275'
p108
aS'C:3276'
p109
asg13
(lp110
S'C:1443'
p111
aS'C:1444'
p112
aS'C:1445'
p113
asg18
S'LEU_107_A'
p114
sg20
S'LIG_2_A'
p115
sg22
S'H-H'
p116
sbag4
(g5
g6
Ntp117
Rp118
(dp119
g10
(lp120
S'C:3274'
p121
aS'C:3275'
p122
aS'C:3276'
p123
asg13
(lp124
S'C:2069'
p125
aS'C:2070'
p126
aS'C:2071'
p127
asg18
S'VAL_150_A'
p128
sg20
S'LIG_2_A'
p129
sg22
S'H-H'
p130
sbag4
(g5
g6
Ntp131
Rp132
(dp133
g10
(lp134
S'C:3274'
p135
aS'C:3275'
p136
aS'C:3276'
p137
asg13
(lp138
S'C:1304'
p139
asg18
S'MET_98_A'
p140
sg20
S'LIG_2_A'
p141
sg22
S'H-H'
p142
sbag4
(g5
g6
Ntp143
Rp144
(dp145
g10
(lp146
S'C:3274'
p147
aS'C:3275'
p148
aS'C:3276'
p149
asg13
(lp150
S'S:1303'
p151
asg18
S'MET_98_A'
p152
sg20
S'LIG_2_A'
p153
sg22
S'H-H'
p154
sbag4
(g5
g6
Ntp155
Rp156
(dp157
g10
(lp158
S'C:3274'
p159
aS'C:3275'
p160
aS'C:3276'
p161
asg13
(lp162
S'C:1442'
p163
asg18
S'LEU_107_A'
p164
sg20
S'LIG_2_A'
p165
sg22
S'H-H'
p166
sbag4
(g5
g6
Ntp167
Rp168
(dp169
g10
(lp170
S'C:3274'
p171
aS'C:3275'
p172
aS'C:3276'
p173
asg13
(lp174
S'C:1874'
p175
asg18
S'PHE_138_A'
p176
sg20
S'LIG_2_A'
p177
sg22
S'H-H'
p178
sbag4
(g5
g6
Ntp179
Rp180
(dp181
g10
(lp182
S'C:3271'
p183
aS'C:3272'
p184
aS'C:3273'
p185
aS'C:3274'
p186
aS'C:3276'
p187
asg13
(lp188
S'C:1875'
p189
aS'C:1876'
p190
aS'C:1877'
p191
aS'C:1878'
p192
aS'C:1879'
p193
aS'C:1880'
p194
asg18
S'PHE_138_A'
p195
sg20
S'LIG_2_A'
p196
sg22
S'H-H'
p197
sbag4
(g5
g6
Ntp198
Rp199
(dp200
g10
(lp201
S'C:3271'
p202
aS'C:3272'
p203
aS'C:3273'
p204
aS'C:3274'
p205
aS'C:3276'
p206
asg13
(lp207
S'C:1895'
p208
aS'C:1896'
p209
aS'C:1897'
p210
aS'C:1898'
p211
aS'C:1899'
p212
aS'C:1900'
p213
asg18
S'TYR_139_A'
p214
sg20
S'LIG_2_A'
p215
sg22
S'H-H'
p216
sbag4
(g5
g6
Ntp217
Rp218
(dp219
g10
(lp220
S'C:3271'
p221
aS'C:3272'
p222
aS'C:3273'
p223
aS'C:3274'
p224
aS'C:3276'
p225
asg13
(lp226
S'C:1443'
p227
aS'C:1444'
p228
aS'C:1445'
p229
asg18
S'LEU_107_A'
p230
sg20
S'LIG_2_A'
p231
sg22
S'H-H'
p232
sbag4
(g5
g6
Ntp233
Rp234
(dp235
g10
(lp236
S'C:3271'
p237
aS'C:3272'
p238
aS'C:3273'
p239
aS'C:3274'
p240
aS'C:3276'
p241
asg13
(lp242
S'C:1304'
p243
asg18
S'MET_98_A'
p244
sg20
S'LIG_2_A'
p245
sg22
S'H-H'
p246
sbag4
(g5
g6
Ntp247
Rp248
(dp249
g10
(lp250
S'C:3271'
p251
aS'C:3272'
p252
aS'C:3273'
p253
aS'C:3274'
p254
aS'C:3276'
p255
asg13
(lp256
S'S:1303'
p257
asg18
S'MET_98_A'
p258
sg20
S'LIG_2_A'
p259
sg22
S'H-H'
p260
sbag4
(g5
g6
Ntp261
Rp262
(dp263
g10
(lp264
S'C:3271'
p265
aS'C:3272'
p266
aS'C:3273'
p267
aS'C:3274'
p268
aS'C:3276'
p269
asg13
(lp270
S'C:1442'
p271
asg18
S'LEU_107_A'
p272
sg20
S'LIG_2_A'
p273
sg22
S'H-H'
p274
sbag4
(g5
g6
Ntp275
Rp276
(dp277
g10
(lp278
S'C:3271'
p279
aS'C:3272'
p280
aS'C:3273'
p281
aS'C:3274'
p282
aS'C:3276'
p283
asg13
(lp284
S'C:1874'
p285
asg18
S'PHE_138_A'
p286
sg20
S'LIG_2_A'
p287
sg22
S'H-H'
p288
sbag4
(g5
g6
Ntp289
Rp290
(dp291
g10
(lp292
S'C:3274'
p293
aS'C:3275'
p294
aS'O:3277'
p295
aS'C:3278'
p296
aS'O:3279'
p297
asg13
(lp298
S'C:2259'
p299
aS'C:2260'
p300
aS'C:2261'
p301
aS'N:2262'
p302
aS'C:2263'
p303
asg18
S'TRP_162_A'
p304
sg20
S'LIG_2_A'
p305
sg22
S'H-H'
p306
sbag4
(g5
g6
Ntp307
Rp308
(dp309
g10
(lp310
S'C:3274'
p311
aS'C:3275'
p312
aS'O:3277'
p313
aS'C:3278'
p314
aS'O:3279'
p315
asg13
(lp316
S'C:1875'
p317
aS'C:1876'
p318
aS'C:1877'
p319
aS'C:1878'
p320
aS'C:1879'
p321
aS'C:1880'
p322
asg18
S'PHE_138_A'
p323
sg20
S'LIG_2_A'
p324
sg22
S'H-H'
p325
sbag4
(g5
g6
Ntp326
Rp327
(dp328
g10
(lp329
S'C:3274'
p330
aS'C:3275'
p331
aS'O:3277'
p332
aS'C:3278'
p333
aS'O:3279'
p334
asg13
(lp335
S'C:2261'
p336
aS'C:2263'
p337
aS'C:2264'
p338
aS'C:2265'
p339
aS'C:2266'
p340
aS'C:2267'
p341
asg18
S'TRP_162_A'
p342
sg20
S'LIG_2_A'
p343
sg22
S'H-H'
p344
sbag4
(g5
g6
Ntp345
Rp346
(dp347
g10
(lp348
S'C:3274'
p349
aS'C:3275'
p350
aS'O:3277'
p351
aS'C:3278'
p352
aS'O:3279'
p353
asg13
(lp354
S'C:1443'
p355
aS'C:1444'
p356
aS'C:1445'
p357
asg18
S'LEU_107_A'
p358
sg20
S'LIG_2_A'
p359
sg22
S'H-H'
p360
sbag4
(g5
g6
Ntp361
Rp362
(dp363
g10
(lp364
S'C:3274'
p365
aS'C:3275'
p366
aS'O:3277'
p367
aS'C:3278'
p368
aS'O:3279'
p369
asg13
(lp370
S'C:2069'
p371
aS'C:2070'
p372
aS'C:2071'
p373
asg18
S'VAL_150_A'
p374
sg20
S'LIG_2_A'
p375
sg22
S'H-H'
p376
sbag4
(g5
g6
Ntp377
Rp378
(dp379
g10
(lp380
S'C:3274'
p381
aS'C:3275'
p382
aS'O:3277'
p383
aS'C:3278'
p384
aS'O:3279'
p385
asg13
(lp386
S'C:1304'
p387
asg18
S'MET_98_A'
p388
sg20
S'LIG_2_A'
p389
sg22
S'H-H'
p390
sbag4
(g5
g6
Ntp391
Rp392
(dp393
g10
(lp394
S'C:3274'
p395
aS'C:3275'
p396
aS'O:3277'
p397
aS'C:3278'
p398
aS'O:3279'
p399
asg13
(lp400
S'S:1303'
p401
asg18
S'MET_98_A'
p402
sg20
S'LIG_2_A'
p403
sg22
S'H-H'
p404
sbag4
(g5
g6
Ntp405
Rp406
(dp407
g10
(lp408
S'C:3274'
p409
aS'C:3275'
p410
aS'O:3277'
p411
aS'C:3278'
p412
aS'O:3279'
p413
asg13
(lp414
S'C:1442'
p415
asg18
S'LEU_107_A'
p416
sg20
S'LIG_2_A'
p417
sg22
S'H-H'
p418
sbag4
(g5
g6
Ntp419
Rp420
(dp421
g10
(lp422
S'C:3274'
p423
aS'C:3275'
p424
aS'O:3277'
p425
aS'C:3278'
p426
aS'O:3279'
p427
asg13
(lp428
S'C:1874'
p429
asg18
S'PHE_138_A'
p430
sg20
S'LIG_2_A'
p431
sg22
S'H-H'
p432
sbag4
(g5
g6
Ntp433
Rp434
(dp435
g10
(lp436
S'C:3266'
p437
aS'C:3267'
p438
aS'C:3280'
p439
aS'C:3281'
p440
aS'C:3282'
p441
aS'C:3283'
p442
asg13
(lp443
S'C:616'
p444
aS'C:619'
p445
asg18
S'ALA_55_A'
p446
sg20
S'LIG_2_A'
p447
sg22
S'H-H'
p448
sbag4
(g5
g6
Ntp449
Rp450
(dp451
g10
(lp452
S'C:3266'
p453
aS'C:3267'
p454
aS'C:3280'
p455
aS'C:3281'
p456
aS'C:3282'
p457
aS'C:3283'
p458
asg13
(lp459
S'C:1275'
p460
aS'C:1277'
p461
asg18
S'ILE_96_A'
p462
sg20
S'LIG_2_A'
p463
sg22
S'H-H'
p464
sbag4
(g5
g6
Ntp465
Rp466
(dp467
g10
(lp468
S'C:3266'
p469
aS'C:3267'
p470
aS'C:3280'
p471
aS'C:3281'
p472
aS'C:3282'
p473
aS'C:3283'
p474
asg13
(lp475
S'C:1443'
p476
aS'C:1444'
p477
aS'C:1445'
p478
asg18
S'LEU_107_A'
p479
sg20
S'LIG_2_A'
p480
sg22
S'H-H'
p481
sbag4
(g5
g6
Ntp482
Rp483
(dp484
g10
(lp485
S'C:3266'
p486
aS'C:3267'
p487
aS'C:3280'
p488
aS'C:3281'
p489
aS'C:3282'
p490
aS'C:3283'
p491
asg13
(lp492
S'C:1304'
p493
asg18
S'MET_98_A'
p494
sg20
S'LIG_2_A'
p495
sg22
S'H-H'
p496
sbag4
(g5
g6
Ntp497
Rp498
(dp499
g10
(lp500
S'C:3266'
p501
aS'C:3267'
p502
aS'C:3280'
p503
aS'C:3281'
p504
aS'C:3282'
p505
aS'C:3283'
p506
asg13
(lp507
S'S:1303'
p508
asg18
S'MET_98_A'
p509
sg20
S'LIG_2_A'
p510
sg22
S'H-H'
p511
sbag4
(g5
g6
Ntp512
Rp513
(dp514
g10
(lp515
S'C:3266'
p516
aS'C:3267'
p517
aS'C:3280'
p518
aS'C:3281'
p519
aS'C:3282'
p520
aS'C:3283'
p521
asg13
(lp522
S'C:1302'
p523
asg18
S'MET_98_A'
p524
sg20
S'LIG_2_A'
p525
sg22
S'H-H'
p526
sbag4
(g5
g6
Ntp527
Rp528
(dp529
g10
(lp530
S'C:3266'
p531
aS'C:3267'
p532
aS'C:3280'
p533
aS'C:3281'
p534
aS'C:3282'
p535
aS'C:3283'
p536
asg13
(lp537
S'C:1301'
p538
asg18
S'MET_98_A'
p539
sg20
S'LIG_2_A'
p540
sg22
S'H-H'
p541
sbass.