(dp0
I0
(dp1
S'PI-NI'
p2
(lp3
ccopy_reg
_reconstructor
p4
(c__main__
Ph4InteractionInformation
p5
c__builtin__
object
p6
Ntp7
Rp8
(dp9
S'lig_atom'
p10
(lp11
S'N:3283'
p12
aS'C:3284'
p13
aS'N:3285'
p14
aS'N:3287'
p15
asS'env_atom'
p16
(lp17
S'C:1243'
p18
aS'O:1244'
p19
aS'O:1245'
p20
asS'env_residue'
p21
S'ASP_93_A'
p22
sS'lig_residue'
p23
S'LIG_2_A'
p24
sS'interaction_type'
p25
g2
sbasS'H-H'
p26
(lp27
g4
(g5
g6
Ntp28
Rp29
(dp30
g10
(lp31
S'C:3261'
p32
aS'O:3262'
p33
aS'C:3263'
p34
asg16
(lp35
S'C:2259'
p36
aS'C:2260'
p37
aS'C:2261'
p38
aS'N:2262'
p39
aS'C:2263'
p40
asg21
S'TRP_162_A'
p41
sg23
S'LIG_2_A'
p42
sg25
g26
sbag4
(g5
g6
Ntp43
Rp44
(dp45
g10
(lp46
S'C:3261'
p47
aS'O:3262'
p48
aS'C:3263'
p49
asg16
(lp50
S'C:1875'
p51
aS'C:1876'
p52
aS'C:1877'
p53
aS'C:1878'
p54
aS'C:1879'
p55
aS'C:1880'
p56
asg21
S'PHE_138_A'
p57
sg23
S'LIG_2_A'
p58
sg25
S'H-H'
p59
sbag4
(g5
g6
Ntp60
Rp61
(dp62
g10
(lp63
S'C:3261'
p64
aS'O:3262'
p65
aS'C:3263'
p66
asg16
(lp67
S'C:2261'
p68
aS'C:2263'
p69
aS'C:2264'
p70
aS'C:2265'
p71
aS'C:2266'
p72
aS'C:2267'
p73
asg21
S'TRP_162_A'
p74
sg23
S'LIG_2_A'
p75
sg25
S'H-H'
p76
sbag4
(g5
g6
Ntp77
Rp78
(dp79
g10
(lp80
S'C:3261'
p81
aS'O:3262'
p82
aS'C:3263'
p83
asg16
(lp84
S'C:1377'
p85
aS'C:1378'
p86
aS'C:1379'
p87
asg21
S'LEU_103_A'
p88
sg23
S'LIG_2_A'
p89
sg25
S'H-H'
p90
sbag4
(g5
g6
Ntp91
Rp92
(dp93
g10
(lp94
S'C:3261'
p95
aS'O:3262'
p96
aS'C:3263'
p97
asg16
(lp98
S'C:2069'
p99
aS'C:2070'
p100
aS'C:2071'
p101
asg21
S'VAL_150_A'
p102
sg23
S'LIG_2_A'
p103
sg25
S'H-H'
p104
sbag4
(g5
g6
Ntp105
Rp106
(dp107
g10
(lp108
S'C:3261'
p109
aS'O:3262'
p110
aS'C:3263'
p111
asg16
(lp112
S'C:1304'
p113
asg21
S'MET_98_A'
p114
sg23
S'LIG_2_A'
p115
sg25
S'H-H'
p116
sbag4
(g5
g6
Ntp117
Rp118
(dp119
g10
(lp120
S'C:3261'
p121
aS'O:3262'
p122
aS'C:3263'
p123
asg16
(lp124
S'S:1303'
p125
asg21
S'MET_98_A'
p126
sg23
S'LIG_2_A'
p127
sg25
S'H-H'
p128
sbag4
(g5
g6
Ntp129
Rp130
(dp131
g10
(lp132
S'C:3261'
p133
aS'O:3262'
p134
aS'C:3263'
p135
asg16
(lp136
S'C:1874'
p137
asg21
S'PHE_138_A'
p138
sg23
S'LIG_2_A'
p139
sg25
S'H-H'
p140
sbag4
(g5
g6
Ntp141
Rp142
(dp143
g10
(lp144
S'C:3261'
p145
aS'C:3263'
p146
aS'C:3265'
p147
asg16
(lp148
S'C:2259'
p149
aS'C:2260'
p150
aS'C:2261'
p151
aS'N:2262'
p152
aS'C:2263'
p153
asg21
S'TRP_162_A'
p154
sg23
S'LIG_2_A'
p155
sg25
S'H-H'
p156
sbag4
(g5
g6
Ntp157
Rp158
(dp159
g10
(lp160
S'C:3261'
p161
aS'C:3263'
p162
aS'C:3265'
p163
asg16
(lp164
S'C:1875'
p165
aS'C:1876'
p166
aS'C:1877'
p167
aS'C:1878'
p168
aS'C:1879'
p169
aS'C:1880'
p170
asg21
S'PHE_138_A'
p171
sg23
S'LIG_2_A'
p172
sg25
S'H-H'
p173
sbag4
(g5
g6
Ntp174
Rp175
(dp176
g10
(lp177
S'C:3261'
p178
aS'C:3263'
p179
aS'C:3265'
p180
asg16
(lp181
S'C:2261'
p182
aS'C:2263'
p183
aS'C:2264'
p184
aS'C:2265'
p185
aS'C:2266'
p186
aS'C:2267'
p187
asg21
S'TRP_162_A'
p188
sg23
S'LIG_2_A'
p189
sg25
S'H-H'
p190
sbag4
(g5
g6
Ntp191
Rp192
(dp193
g10
(lp194
S'C:3261'
p195
aS'C:3263'
p196
aS'C:3265'
p197
asg16
(lp198
S'C:1377'
p199
aS'C:1378'
p200
aS'C:1379'
p201
asg21
S'LEU_103_A'
p202
sg23
S'LIG_2_A'
p203
sg25
S'H-H'
p204
sbag4
(g5
g6
Ntp205
Rp206
(dp207
g10
(lp208
S'C:3261'
p209
aS'C:3263'
p210
aS'C:3265'
p211
asg16
(lp212
S'C:1443'
p213
aS'C:1444'
p214
aS'C:1445'
p215
asg21
S'LEU_107_A'
p216
sg23
S'LIG_2_A'
p217
sg25
S'H-H'
p218
sbag4
(g5
g6
Ntp219
Rp220
(dp221
g10
(lp222
S'C:3261'
p223
aS'C:3263'
p224
aS'C:3265'
p225
asg16
(lp226
S'C:2069'
p227
aS'C:2070'
p228
aS'C:2071'
p229
asg21
S'VAL_150_A'
p230
sg23
S'LIG_2_A'
p231
sg25
S'H-H'
p232
sbag4
(g5
g6
Ntp233
Rp234
(dp235
g10
(lp236
S'C:3261'
p237
aS'C:3263'
p238
aS'C:3265'
p239
asg16
(lp240
S'C:1304'
p241
asg21
S'MET_98_A'
p242
sg23
S'LIG_2_A'
p243
sg25
S'H-H'
p244
sbag4
(g5
g6
Ntp245
Rp246
(dp247
g10
(lp248
S'C:3261'
p249
aS'C:3263'
p250
aS'C:3265'
p251
asg16
(lp252
S'S:1303'
p253
asg21
S'MET_98_A'
p254
sg23
S'LIG_2_A'
p255
sg25
S'H-H'
p256
sbag4
(g5
g6
Ntp257
Rp258
(dp259
g10
(lp260
S'C:3261'
p261
aS'C:3263'
p262
aS'C:3265'
p263
asg16
(lp264
S'C:1442'
p265
asg21
S'LEU_107_A'
p266
sg23
S'LIG_2_A'
p267
sg25
S'H-H'
p268
sbag4
(g5
g6
Ntp269
Rp270
(dp271
g10
(lp272
S'C:3261'
p273
aS'C:3263'
p274
aS'C:3265'
p275
asg16
(lp276
S'C:1874'
p277
asg21
S'PHE_138_A'
p278
sg23
S'LIG_2_A'
p279
sg25
S'H-H'
p280
sbag4
(g5
g6
Ntp281
Rp282
(dp283
g10
(lp284
S'C:3263'
p285
aS'O:3264'
p286
aS'C:3265'
p287
asg16
(lp288
S'C:2259'
p289
aS'C:2260'
p290
aS'C:2261'
p291
aS'N:2262'
p292
aS'C:2263'
p293
asg21
S'TRP_162_A'
p294
sg23
S'LIG_2_A'
p295
sg25
S'H-H'
p296
sbag4
(g5
g6
Ntp297
Rp298
(dp299
g10
(lp300
S'C:3263'
p301
aS'O:3264'
p302
aS'C:3265'
p303
asg16
(lp304
S'C:1875'
p305
aS'C:1876'
p306
aS'C:1877'
p307
aS'C:1878'
p308
aS'C:1879'
p309
aS'C:1880'
p310
asg21
S'PHE_138_A'
p311
sg23
S'LIG_2_A'
p312
sg25
S'H-H'
p313
sbag4
(g5
g6
Ntp314
Rp315
(dp316
g10
(lp317
S'C:3263'
p318
aS'O:3264'
p319
aS'C:3265'
p320
asg16
(lp321
S'C:2261'
p322
aS'C:2263'
p323
aS'C:2264'
p324
aS'C:2265'
p325
aS'C:2266'
p326
aS'C:2267'
p327
asg21
S'TRP_162_A'
p328
sg23
S'LIG_2_A'
p329
sg25
S'H-H'
p330
sbag4
(g5
g6
Ntp331
Rp332
(dp333
g10
(lp334
S'C:3263'
p335
aS'O:3264'
p336
aS'C:3265'
p337
asg16
(lp338
S'C:1377'
p339
aS'C:1378'
p340
aS'C:1379'
p341
asg21
S'LEU_103_A'
p342
sg23
S'LIG_2_A'
p343
sg25
S'H-H'
p344
sbag4
(g5
g6
Ntp345
Rp346
(dp347
g10
(lp348
S'C:3263'
p349
aS'O:3264'
p350
aS'C:3265'
p351
asg16
(lp352
S'C:2069'
p353
aS'C:2070'
p354
aS'C:2071'
p355
asg21
S'VAL_150_A'
p356
sg23
S'LIG_2_A'
p357
sg25
S'H-H'
p358
sbag4
(g5
g6
Ntp359
Rp360
(dp361
g10
(lp362
S'C:3263'
p363
aS'O:3264'
p364
aS'C:3265'
p365
asg16
(lp366
S'C:1304'
p367
asg21
S'MET_98_A'
p368
sg23
S'LIG_2_A'
p369
sg25
S'H-H'
p370
sbag4
(g5
g6
Ntp371
Rp372
(dp373
g10
(lp374
S'C:3263'
p375
aS'O:3264'
p376
aS'C:3265'
p377
asg16
(lp378
S'S:1303'
p379
asg21
S'MET_98_A'
p380
sg23
S'LIG_2_A'
p381
sg25
S'H-H'
p382
sbag4
(g5
g6
Ntp383
Rp384
(dp385
g10
(lp386
S'C:3263'
p387
aS'O:3264'
p388
aS'C:3265'
p389
asg16
(lp390
S'C:1442'
p391
asg21
S'LEU_107_A'
p392
sg23
S'LIG_2_A'
p393
sg25
S'H-H'
p394
sbag4
(g5
g6
Ntp395
Rp396
(dp397
g10
(lp398
S'C:3263'
p399
aS'O:3264'
p400
aS'C:3265'
p401
asg16
(lp402
S'C:1874'
p403
asg21
S'PHE_138_A'
p404
sg23
S'LIG_2_A'
p405
sg25
S'H-H'
p406
sbag4
(g5
g6
Ntp407
Rp408
(dp409
g10
(lp410
S'C:3265'
p411
aS'C:3266'
p412
aS'C:3267'
p413
asg16
(lp414
S'C:1875'
p415
aS'C:1876'
p416
aS'C:1877'
p417
aS'C:1878'
p418
aS'C:1879'
p419
aS'C:1880'
p420
asg21
S'PHE_138_A'
p421
sg23
S'LIG_2_A'
p422
sg25
S'H-H'
p423
sbag4
(g5
g6
Ntp424
Rp425
(dp426
g10
(lp427
S'C:3265'
p428
aS'C:3266'
p429
aS'C:3267'
p430
asg16
(lp431
S'C:1895'
p432
aS'C:1896'
p433
aS'C:1897'
p434
aS'C:1898'
p435
aS'C:1899'
p436
aS'C:1900'
p437
asg21
S'TYR_139_A'
p438
sg23
S'LIG_2_A'
p439
sg25
S'H-H'
p440
sbag4
(g5
g6
Ntp441
Rp442
(dp443
g10
(lp444
S'C:3265'
p445
aS'C:3266'
p446
aS'C:3267'
p447
asg16
(lp448
S'C:1443'
p449
aS'C:1444'
p450
aS'C:1445'
p451
asg21
S'LEU_107_A'
p452
sg23
S'LIG_2_A'
p453
sg25
S'H-H'
p454
sbag4
(g5
g6
Ntp455
Rp456
(dp457
g10
(lp458
S'C:3265'
p459
aS'C:3266'
p460
aS'C:3267'
p461
asg16
(lp462
S'C:1304'
p463
asg21
S'MET_98_A'
p464
sg23
S'LIG_2_A'
p465
sg25
S'H-H'
p466
sbag4
(g5
g6
Ntp467
Rp468
(dp469
g10
(lp470
S'C:3265'
p471
aS'C:3266'
p472
aS'C:3267'
p473
asg16
(lp474
S'S:1303'
p475
asg21
S'MET_98_A'
p476
sg23
S'LIG_2_A'
p477
sg25
S'H-H'
p478
sbag4
(g5
g6
Ntp479
Rp480
(dp481
g10
(lp482
S'C:3265'
p483
aS'C:3266'
p484
aS'C:3267'
p485
asg16
(lp486
S'C:1442'
p487
asg21
S'LEU_107_A'
p488
sg23
S'LIG_2_A'
p489
sg25
S'H-H'
p490
sbag4
(g5
g6
Ntp491
Rp492
(dp493
g10
(lp494
S'C:3265'
p495
aS'C:3266'
p496
aS'C:3267'
p497
asg16
(lp498
S'C:1874'
p499
asg21
S'PHE_138_A'
p500
sg23
S'LIG_2_A'
p501
sg25
S'H-H'
p502
sbag4
(g5
g6
Ntp503
Rp504
(dp505
g10
(lp506
S'C:3274'
p507
aS'C:3279'
p508
aS'C:3280'
p509
asg16
(lp510
S'C:616'
p511
aS'C:619'
p512
asg21
S'ALA_55_A'
p513
sg23
S'LIG_2_A'
p514
sg25
S'H-H'
p515
sbag4
(g5
g6
Ntp516
Rp517
(dp518
g10
(lp519
S'C:3274'
p520
aS'C:3279'
p521
aS'C:3280'
p522
asg16
(lp523
S'C:1275'
p524
aS'C:1277'
p525
asg21
S'ILE_96_A'
p526
sg23
S'LIG_2_A'
p527
sg25
S'H-H'
p528
sbag4
(g5
g6
Ntp529
Rp530
(dp531
g10
(lp532
S'C:3274'
p533
aS'C:3279'
p534
aS'C:3280'
p535
asg16
(lp536
S'C:1304'
p537
asg21
S'MET_98_A'
p538
sg23
S'LIG_2_A'
p539
sg25
S'H-H'
p540
sbag4
(g5
g6
Ntp541
Rp542
(dp543
g10
(lp544
S'C:3274'
p545
aS'C:3279'
p546
aS'C:3280'
p547
asg16
(lp548
S'S:1303'
p549
asg21
S'MET_98_A'
p550
sg23
S'LIG_2_A'
p551
sg25
S'H-H'
p552
sbag4
(g5
g6
Ntp553
Rp554
(dp555
g10
(lp556
S'C:3274'
p557
aS'C:3279'
p558
aS'C:3280'
p559
asg16
(lp560
S'C:1302'
p561
asg21
S'MET_98_A'
p562
sg23
S'LIG_2_A'
p563
sg25
S'H-H'
p564
sbag4
(g5
g6
Ntp565
Rp566
(dp567
g10
(lp568
S'C:3274'
p569
aS'C:3279'
p570
aS'C:3280'
p571
asg16
(lp572
S'C:1301'
p573
asg21
S'MET_98_A'
p574
sg23
S'LIG_2_A'
p575
sg25
S'H-H'
p576
sbag4
(g5
g6
Ntp577
Rp578
(dp579
g10
(lp580
S'C:3260'
p581
aS'C:3261'
p582
aS'C:3265'
p583
aS'C:3267'
p584
aS'C:3268'
p585
asg16
(lp586
S'C:1875'
p587
aS'C:1876'
p588
aS'C:1877'
p589
aS'C:1878'
p590
aS'C:1879'
p591
aS'C:1880'
p592
asg21
S'PHE_138_A'
p593
sg23
S'LIG_2_A'
p594
sg25
S'H-H'
p595
sbag4
(g5
g6
Ntp596
Rp597
(dp598
g10
(lp599
S'C:3260'
p600
aS'C:3261'
p601
aS'C:3265'
p602
aS'C:3267'
p603
aS'C:3268'
p604
asg16
(lp605
S'C:1443'
p606
aS'C:1444'
p607
aS'C:1445'
p608
asg21
S'LEU_107_A'
p609
sg23
S'LIG_2_A'
p610
sg25
S'H-H'
p611
sbag4
(g5
g6
Ntp612
Rp613
(dp614
g10
(lp615
S'C:3260'
p616
aS'C:3261'
p617
aS'C:3265'
p618
aS'C:3267'
p619
aS'C:3268'
p620
asg16
(lp621
S'C:2069'
p622
aS'C:2070'
p623
aS'C:2071'
p624
asg21
S'VAL_150_A'
p625
sg23
S'LIG_2_A'
p626
sg25
S'H-H'
p627
sbag4
(g5
g6
Ntp628
Rp629
(dp630
g10
(lp631
S'C:3260'
p632
aS'C:3261'
p633
aS'C:3265'
p634
aS'C:3267'
p635
aS'C:3268'
p636
asg16
(lp637
S'C:1304'
p638
asg21
S'MET_98_A'
p639
sg23
S'LIG_2_A'
p640
sg25
S'H-H'
p641
sbag4
(g5
g6
Ntp642
Rp643
(dp644
g10
(lp645
S'C:3260'
p646
aS'C:3261'
p647
aS'C:3265'
p648
aS'C:3267'
p649
aS'C:3268'
p650
asg16
(lp651
S'S:1303'
p652
asg21
S'MET_98_A'
p653
sg23
S'LIG_2_A'
p654
sg25
S'H-H'
p655
sbag4
(g5
g6
Ntp656
Rp657
(dp658
g10
(lp659
S'C:3260'
p660
aS'C:3261'
p661
aS'C:3265'
p662
aS'C:3267'
p663
aS'C:3268'
p664
asg16
(lp665
S'C:1302'
p666
asg21
S'MET_98_A'
p667
sg23
S'LIG_2_A'
p668
sg25
S'H-H'
p669
sbag4
(g5
g6
Ntp670
Rp671
(dp672
g10
(lp673
S'C:3260'
p674
aS'C:3261'
p675
aS'C:3265'
p676
aS'C:3267'
p677
aS'C:3268'
p678
asg16
(lp679
S'C:1442'
p680
asg21
S'LEU_107_A'
p681
sg23
S'LIG_2_A'
p682
sg25
S'H-H'
p683
sbag4
(g5
g6
Ntp684
Rp685
(dp686
g10
(lp687
S'C:3260'
p688
aS'C:3261'
p689
aS'C:3265'
p690
aS'C:3267'
p691
aS'C:3268'
p692
asg16
(lp693
S'C:1874'
p694
asg21
S'PHE_138_A'
p695
sg23
S'LIG_2_A'
p696
sg25
S'H-H'
p697
sbag4
(g5
g6
Ntp698
Rp699
(dp700
g10
(lp701
S'C:3272'
p702
aS'C:3273'
p703
aS'C:3274'
p704
aS'C:3280'
p705
aS'C:3281'
p706
asg16
(lp707
S'C:616'
p708
aS'C:619'
p709
asg21
S'ALA_55_A'
p710
sg23
S'LIG_2_A'
p711
sg25
S'H-H'
p712
sbag4
(g5
g6
Ntp713
Rp714
(dp715
g10
(lp716
S'C:3272'
p717
aS'C:3273'
p718
aS'C:3274'
p719
aS'C:3280'
p720
aS'C:3281'
p721
asg16
(lp722
S'C:1275'
p723
aS'C:1277'
p724
asg21
S'ILE_96_A'
p725
sg23
S'LIG_2_A'
p726
sg25
S'H-H'
p727
sbag4
(g5
g6
Ntp728
Rp729
(dp730
g10
(lp731
S'C:3272'
p732
aS'C:3273'
p733
aS'C:3274'
p734
aS'C:3280'
p735
aS'C:3281'
p736
asg16
(lp737
S'C:1443'
p738
aS'C:1444'
p739
aS'C:1445'
p740
asg21
S'LEU_107_A'
p741
sg23
S'LIG_2_A'
p742
sg25
S'H-H'
p743
sbag4
(g5
g6
Ntp744
Rp745
(dp746
g10
(lp747
S'C:3272'
p748
aS'C:3273'
p749
aS'C:3274'
p750
aS'C:3280'
p751
aS'C:3281'
p752
asg16
(lp753
S'C:1304'
p754
asg21
S'MET_98_A'
p755
sg23
S'LIG_2_A'
p756
sg25
S'H-H'
p757
sbag4
(g5
g6
Ntp758
Rp759
(dp760
g10
(lp761
S'C:3272'
p762
aS'C:3273'
p763
aS'C:3274'
p764
aS'C:3280'
p765
aS'C:3281'
p766
asg16
(lp767
S'S:1303'
p768
asg21
S'MET_98_A'
p769
sg23
S'LIG_2_A'
p770
sg25
S'H-H'
p771
sbag4
(g5
g6
Ntp772
Rp773
(dp774
g10
(lp775
S'C:3272'
p776
aS'C:3273'
p777
aS'C:3274'
p778
aS'C:3280'
p779
aS'C:3281'
p780
asg16
(lp781
S'C:1302'
p782
asg21
S'MET_98_A'
p783
sg23
S'LIG_2_A'
p784
sg25
S'H-H'
p785
sbag4
(g5
g6
Ntp786
Rp787
(dp788
g10
(lp789
S'C:3272'
p790
aS'C:3273'
p791
aS'C:3274'
p792
aS'C:3280'
p793
aS'C:3281'
p794
asg16
(lp795
S'C:1301'
p796
asg21
S'MET_98_A'
p797
sg23
S'LIG_2_A'
p798
sg25
S'H-H'
p799
sbag4
(g5
g6
Ntp800
Rp801
(dp802
g10
(lp803
S'C:3268'
p804
aS'C:3269'
p805
aS'C:3270'
p806
aS'N:3271'
p807
aS'C:3272'
p808
aS'C:3280'
p809
aS'C:3281'
p810
asg16
(lp811
S'C:1875'
p812
aS'C:1876'
p813
aS'C:1877'
p814
aS'C:1878'
p815
aS'C:1879'
p816
aS'C:1880'
p817
asg21
S'PHE_138_A'
p818
sg23
S'LIG_2_A'
p819
sg25
S'H-H'
p820
sbag4
(g5
g6
Ntp821
Rp822
(dp823
g10
(lp824
S'C:3268'
p825
aS'C:3269'
p826
aS'C:3270'
p827
aS'N:3271'
p828
aS'C:3272'
p829
aS'C:3280'
p830
aS'C:3281'
p831
asg16
(lp832
S'C:1443'
p833
aS'C:1444'
p834
aS'C:1445'
p835
asg21
S'LEU_107_A'
p836
sg23
S'LIG_2_A'
p837
sg25
S'H-H'
p838
sbag4
(g5
g6
Ntp839
Rp840
(dp841
g10
(lp842
S'C:3268'
p843
aS'C:3269'
p844
aS'C:3270'
p845
aS'N:3271'
p846
aS'C:3272'
p847
aS'C:3280'
p848
aS'C:3281'
p849
asg16
(lp850
S'C:1304'
p851
asg21
S'MET_98_A'
p852
sg23
S'LIG_2_A'
p853
sg25
S'H-H'
p854
sbag4
(g5
g6
Ntp855
Rp856
(dp857
g10
(lp858
S'C:3268'
p859
aS'C:3269'
p860
aS'C:3270'
p861
aS'N:3271'
p862
aS'C:3272'
p863
aS'C:3280'
p864
aS'C:3281'
p865
asg16
(lp866
S'S:1303'
p867
asg21
S'MET_98_A'
p868
sg23
S'LIG_2_A'
p869
sg25
S'H-H'
p870
sbag4
(g5
g6
Ntp871
Rp872
(dp873
g10
(lp874
S'C:3268'
p875
aS'C:3269'
p876
aS'C:3270'
p877
aS'N:3271'
p878
aS'C:3272'
p879
aS'C:3280'
p880
aS'C:3281'
p881
asg16
(lp882
S'C:1302'
p883
asg21
S'MET_98_A'
p884
sg23
S'LIG_2_A'
p885
sg25
S'H-H'
p886
sbag4
(g5
g6
Ntp887
Rp888
(dp889
g10
(lp890
S'C:3268'
p891
aS'C:3269'
p892
aS'C:3270'
p893
aS'N:3271'
p894
aS'C:3272'
p895
aS'C:3280'
p896
aS'C:3281'
p897
asg16
(lp898
S'C:1442'
p899
asg21
S'LEU_107_A'
p900
sg23
S'LIG_2_A'
p901
sg25
S'H-H'
p902
sbag4
(g5
g6
Ntp903
Rp904
(dp905
g10
(lp906
S'C:3268'
p907
aS'C:3269'
p908
aS'C:3270'
p909
aS'N:3271'
p910
aS'C:3272'
p911
aS'C:3280'
p912
aS'C:3281'
p913
asg16
(lp914
S'C:1874'
p915
asg21
S'PHE_138_A'
p916
sg23
S'LIG_2_A'
p917
sg25
S'H-H'
p918
sbasS'HBA-HBD'
p919
(lp920
g4
(g5
g6
Ntp921
Rp922
(dp923
g10
(lp924
S'N:3283'
p925
asg16
(lp926
S'O:2560'
p927
asg21
S'THR_184_A'
p928
sg23
S'LIG_2_A'
p929
sg25
g919
sbass.