(dp0
I0
(dp1
S'H-H'
p2
(lp3
ccopy_reg
_reconstructor
p4
(c__main__
Ph4InteractionInformation
p5
c__builtin__
object
p6
Ntp7
Rp8
(dp9
S'lig_atom'
p10
(lp11
S'C:3262'
p12
aS'C:3263'
p13
aS'C:3264'
p14
asS'env_atom'
p15
(lp16
S'C:616'
p17
aS'C:619'
p18
asS'env_residue'
p19
S'ALA_55_A'
p20
sS'lig_residue'
p21
S'LIG_158_A'
p22
sS'interaction_type'
p23
g2
sbag4
(g5
g6
Ntp24
Rp25
(dp26
g10
(lp27
S'C:3262'
p28
aS'C:3263'
p29
aS'C:3264'
p30
asg15
(lp31
S'C:1275'
p32
aS'C:1277'
p33
asg19
S'ILE_96_A'
p34
sg21
S'LIG_158_A'
p35
sg23
S'H-H'
p36
sbag4
(g5
g6
Ntp37
Rp38
(dp39
g10
(lp40
S'C:3262'
p41
aS'C:3263'
p42
aS'C:3264'
p43
asg15
(lp44
S'C:1443'
p45
aS'C:1444'
p46
aS'C:1445'
p47
asg19
S'LEU_107_A'
p48
sg21
S'LIG_158_A'
p49
sg23
S'H-H'
p50
sbag4
(g5
g6
Ntp51
Rp52
(dp53
g10
(lp54
S'C:3262'
p55
aS'C:3263'
p56
aS'C:3264'
p57
asg15
(lp58
S'C:1304'
p59
asg19
S'MET_98_A'
p60
sg21
S'LIG_158_A'
p61
sg23
S'H-H'
p62
sbag4
(g5
g6
Ntp63
Rp64
(dp65
g10
(lp66
S'C:3262'
p67
aS'C:3263'
p68
aS'C:3264'
p69
asg15
(lp70
S'S:1303'
p71
asg19
S'MET_98_A'
p72
sg21
S'LIG_158_A'
p73
sg23
S'H-H'
p74
sbag4
(g5
g6
Ntp75
Rp76
(dp77
g10
(lp78
S'C:3262'
p79
aS'C:3263'
p80
aS'C:3264'
p81
asg15
(lp82
S'C:1302'
p83
asg19
S'MET_98_A'
p84
sg21
S'LIG_158_A'
p85
sg23
S'H-H'
p86
sbag4
(g5
g6
Ntp87
Rp88
(dp89
g10
(lp90
S'C:3262'
p91
aS'C:3263'
p92
aS'C:3264'
p93
asg15
(lp94
S'C:1301'
p95
asg19
S'MET_98_A'
p96
sg21
S'LIG_158_A'
p97
sg23
S'H-H'
p98
sbag4
(g5
g6
Ntp99
Rp100
(dp101
g10
(lp102
S'C:3261'
p103
aS'C:3262'
p104
aS'C:3264'
p105
aS'C:3265'
p106
aS'C:3266'
p107
asg15
(lp108
S'C:616'
p109
aS'C:619'
p110
asg19
S'ALA_55_A'
p111
sg21
S'LIG_158_A'
p112
sg23
S'H-H'
p113
sbag4
(g5
g6
Ntp114
Rp115
(dp116
g10
(lp117
S'C:3261'
p118
aS'C:3262'
p119
aS'C:3264'
p120
aS'C:3265'
p121
aS'C:3266'
p122
asg15
(lp123
S'C:1275'
p124
aS'C:1277'
p125
asg19
S'ILE_96_A'
p126
sg21
S'LIG_158_A'
p127
sg23
S'H-H'
p128
sbag4
(g5
g6
Ntp129
Rp130
(dp131
g10
(lp132
S'C:3261'
p133
aS'C:3262'
p134
aS'C:3264'
p135
aS'C:3265'
p136
aS'C:3266'
p137
asg15
(lp138
S'C:1443'
p139
aS'C:1444'
p140
aS'C:1445'
p141
asg19
S'LEU_107_A'
p142
sg21
S'LIG_158_A'
p143
sg23
S'H-H'
p144
sbag4
(g5
g6
Ntp145
Rp146
(dp147
g10
(lp148
S'C:3261'
p149
aS'C:3262'
p150
aS'C:3264'
p151
aS'C:3265'
p152
aS'C:3266'
p153
asg15
(lp154
S'C:1304'
p155
asg19
S'MET_98_A'
p156
sg21
S'LIG_158_A'
p157
sg23
S'H-H'
p158
sbag4
(g5
g6
Ntp159
Rp160
(dp161
g10
(lp162
S'C:3261'
p163
aS'C:3262'
p164
aS'C:3264'
p165
aS'C:3265'
p166
aS'C:3266'
p167
asg15
(lp168
S'S:1303'
p169
asg19
S'MET_98_A'
p170
sg21
S'LIG_158_A'
p171
sg23
S'H-H'
p172
sbag4
(g5
g6
Ntp173
Rp174
(dp175
g10
(lp176
S'C:3261'
p177
aS'C:3262'
p178
aS'C:3264'
p179
aS'C:3265'
p180
aS'C:3266'
p181
asg15
(lp182
S'C:1302'
p183
asg19
S'MET_98_A'
p184
sg21
S'LIG_158_A'
p185
sg23
S'H-H'
p186
sbag4
(g5
g6
Ntp187
Rp188
(dp189
g10
(lp190
S'C:3261'
p191
aS'C:3262'
p192
aS'C:3264'
p193
aS'C:3265'
p194
aS'C:3266'
p195
asg15
(lp196
S'C:1301'
p197
asg19
S'MET_98_A'
p198
sg21
S'LIG_158_A'
p199
sg23
S'H-H'
p200
sbag4
(g5
g6
Ntp201
Rp202
(dp203
g10
(lp204
S'C:3275'
p205
aS'C:3276'
p206
aS'O:3278'
p207
aS'C:3279'
p208
aS'O:3280'
p209
asg15
(lp210
S'C:2259'
p211
aS'C:2260'
p212
aS'C:2261'
p213
aS'N:2262'
p214
aS'C:2263'
p215
asg19
S'TRP_162_A'
p216
sg21
S'LIG_158_A'
p217
sg23
S'H-H'
p218
sbag4
(g5
g6
Ntp219
Rp220
(dp221
g10
(lp222
S'C:3275'
p223
aS'C:3276'
p224
aS'O:3278'
p225
aS'C:3279'
p226
aS'O:3280'
p227
asg15
(lp228
S'C:1875'
p229
aS'C:1876'
p230
aS'C:1877'
p231
aS'C:1878'
p232
aS'C:1879'
p233
aS'C:1880'
p234
asg19
S'PHE_138_A'
p235
sg21
S'LIG_158_A'
p236
sg23
S'H-H'
p237
sbag4
(g5
g6
Ntp238
Rp239
(dp240
g10
(lp241
S'C:3275'
p242
aS'C:3276'
p243
aS'O:3278'
p244
aS'C:3279'
p245
aS'O:3280'
p246
asg15
(lp247
S'C:2261'
p248
aS'C:2263'
p249
aS'C:2264'
p250
aS'C:2265'
p251
aS'C:2266'
p252
aS'C:2267'
p253
asg19
S'TRP_162_A'
p254
sg21
S'LIG_158_A'
p255
sg23
S'H-H'
p256
sbag4
(g5
g6
Ntp257
Rp258
(dp259
g10
(lp260
S'C:3275'
p261
aS'C:3276'
p262
aS'O:3278'
p263
aS'C:3279'
p264
aS'O:3280'
p265
asg15
(lp266
S'C:1443'
p267
aS'C:1444'
p268
aS'C:1445'
p269
asg19
S'LEU_107_A'
p270
sg21
S'LIG_158_A'
p271
sg23
S'H-H'
p272
sbag4
(g5
g6
Ntp273
Rp274
(dp275
g10
(lp276
S'C:3275'
p277
aS'C:3276'
p278
aS'O:3278'
p279
aS'C:3279'
p280
aS'O:3280'
p281
asg15
(lp282
S'C:2069'
p283
aS'C:2070'
p284
aS'C:2071'
p285
asg19
S'VAL_150_A'
p286
sg21
S'LIG_158_A'
p287
sg23
S'H-H'
p288
sbag4
(g5
g6
Ntp289
Rp290
(dp291
g10
(lp292
S'C:3275'
p293
aS'C:3276'
p294
aS'O:3278'
p295
aS'C:3279'
p296
aS'O:3280'
p297
asg15
(lp298
S'C:1304'
p299
asg19
S'MET_98_A'
p300
sg21
S'LIG_158_A'
p301
sg23
S'H-H'
p302
sbag4
(g5
g6
Ntp303
Rp304
(dp305
g10
(lp306
S'C:3275'
p307
aS'C:3276'
p308
aS'O:3278'
p309
aS'C:3279'
p310
aS'O:3280'
p311
asg15
(lp312
S'S:1303'
p313
asg19
S'MET_98_A'
p314
sg21
S'LIG_158_A'
p315
sg23
S'H-H'
p316
sbag4
(g5
g6
Ntp317
Rp318
(dp319
g10
(lp320
S'C:3275'
p321
aS'C:3276'
p322
aS'O:3278'
p323
aS'C:3279'
p324
aS'O:3280'
p325
asg15
(lp326
S'C:1442'
p327
asg19
S'LEU_107_A'
p328
sg21
S'LIG_158_A'
p329
sg23
S'H-H'
p330
sbag4
(g5
g6
Ntp331
Rp332
(dp333
g10
(lp334
S'C:3275'
p335
aS'C:3276'
p336
aS'O:3278'
p337
aS'C:3279'
p338
aS'O:3280'
p339
asg15
(lp340
S'C:1874'
p341
asg19
S'PHE_138_A'
p342
sg21
S'LIG_158_A'
p343
sg23
S'H-H'
p344
sbag4
(g5
g6
Ntp345
Rp346
(dp347
g10
(lp348
S'C:3272'
p349
aS'C:3273'
p350
aS'C:3274'
p351
aS'C:3275'
p352
aS'C:3276'
p353
aS'C:3277'
p354
asg15
(lp355
S'C:1875'
p356
aS'C:1876'
p357
aS'C:1877'
p358
aS'C:1878'
p359
aS'C:1879'
p360
aS'C:1880'
p361
asg19
S'PHE_138_A'
p362
sg21
S'LIG_158_A'
p363
sg23
S'H-H'
p364
sbag4
(g5
g6
Ntp365
Rp366
(dp367
g10
(lp368
S'C:3272'
p369
aS'C:3273'
p370
aS'C:3274'
p371
aS'C:3275'
p372
aS'C:3276'
p373
aS'C:3277'
p374
asg15
(lp375
S'C:1443'
p376
aS'C:1444'
p377
aS'C:1445'
p378
asg19
S'LEU_107_A'
p379
sg21
S'LIG_158_A'
p380
sg23
S'H-H'
p381
sbag4
(g5
g6
Ntp382
Rp383
(dp384
g10
(lp385
S'C:3272'
p386
aS'C:3273'
p387
aS'C:3274'
p388
aS'C:3275'
p389
aS'C:3276'
p390
aS'C:3277'
p391
asg15
(lp392
S'C:1304'
p393
asg19
S'MET_98_A'
p394
sg21
S'LIG_158_A'
p395
sg23
S'H-H'
p396
sbag4
(g5
g6
Ntp397
Rp398
(dp399
g10
(lp400
S'C:3272'
p401
aS'C:3273'
p402
aS'C:3274'
p403
aS'C:3275'
p404
aS'C:3276'
p405
aS'C:3277'
p406
asg15
(lp407
S'S:1303'
p408
asg19
S'MET_98_A'
p409
sg21
S'LIG_158_A'
p410
sg23
S'H-H'
p411
sbag4
(g5
g6
Ntp412
Rp413
(dp414
g10
(lp415
S'C:3272'
p416
aS'C:3273'
p417
aS'C:3274'
p418
aS'C:3275'
p419
aS'C:3276'
p420
aS'C:3277'
p421
asg15
(lp422
S'C:1442'
p423
asg19
S'LEU_107_A'
p424
sg21
S'LIG_158_A'
p425
sg23
S'H-H'
p426
sbag4
(g5
g6
Ntp427
Rp428
(dp429
g10
(lp430
S'C:3272'
p431
aS'C:3273'
p432
aS'C:3274'
p433
aS'C:3275'
p434
aS'C:3276'
p435
aS'C:3277'
p436
asg15
(lp437
S'C:1874'
p438
asg19
S'PHE_138_A'
p439
sg21
S'LIG_158_A'
p440
sg23
S'H-H'
p441
sbag4
(g5
g6
Ntp442
Rp443
(dp444
g10
(lp445
S'F:3260'
p446
asg15
(lp447
S'C:616'
p448
aS'C:619'
p449
asg19
S'ALA_55_A'
p450
sg21
S'LIG_158_A'
p451
sg23
S'H-H'
p452
sbag4
(g5
g6
Ntp453
Rp454
(dp455
g10
(lp456
S'F:3260'
p457
asg15
(lp458
S'C:1275'
p459
aS'C:1277'
p460
asg19
S'ILE_96_A'
p461
sg21
S'LIG_158_A'
p462
sg23
S'H-H'
p463
sbag4
(g5
g6
Ntp464
Rp465
(dp466
g10
(lp467
S'F:3260'
p468
asg15
(lp469
S'C:1276'
p470
asg19
S'ILE_96_A'
p471
sg21
S'LIG_158_A'
p472
sg23
S'H-H'
p473
sbag4
(g5
g6
Ntp474
Rp475
(dp476
g10
(lp477
S'F:3260'
p478
asg15
(lp479
S'C:1304'
p480
asg19
S'MET_98_A'
p481
sg21
S'LIG_158_A'
p482
sg23
S'H-H'
p483
sbag4
(g5
g6
Ntp484
Rp485
(dp486
g10
(lp487
S'F:3260'
p488
asg15
(lp489
S'S:1303'
p490
asg19
S'MET_98_A'
p491
sg21
S'LIG_158_A'
p492
sg23
S'H-H'
p493
sbag4
(g5
g6
Ntp494
Rp495
(dp496
g10
(lp497
S'F:3260'
p498
asg15
(lp499
S'C:1302'
p500
asg19
S'MET_98_A'
p501
sg21
S'LIG_158_A'
p502
sg23
S'H-H'
p503
sbag4
(g5
g6
Ntp504
Rp505
(dp506
g10
(lp507
S'F:3260'
p508
asg15
(lp509
S'C:1301'
p510
asg19
S'MET_98_A'
p511
sg21
S'LIG_158_A'
p512
sg23
S'H-H'
p513
sbag4
(g5
g6
Ntp514
Rp515
(dp516
g10
(lp517
S'C:3271'
p518
asg15
(lp519
S'C:1875'
p520
aS'C:1876'
p521
aS'C:1877'
p522
aS'C:1878'
p523
aS'C:1879'
p524
aS'C:1880'
p525
asg19
S'PHE_138_A'
p526
sg21
S'LIG_158_A'
p527
sg23
S'H-H'
p528
sbag4
(g5
g6
Ntp529
Rp530
(dp531
g10
(lp532
S'C:3271'
p533
asg15
(lp534
S'C:1443'
p535
aS'C:1444'
p536
aS'C:1445'
p537
asg19
S'LEU_107_A'
p538
sg21
S'LIG_158_A'
p539
sg23
S'H-H'
p540
sbag4
(g5
g6
Ntp541
Rp542
(dp543
g10
(lp544
S'C:3271'
p545
asg15
(lp546
S'C:1304'
p547
asg19
S'MET_98_A'
p548
sg21
S'LIG_158_A'
p549
sg23
S'H-H'
p550
sbag4
(g5
g6
Ntp551
Rp552
(dp553
g10
(lp554
S'C:3271'
p555
asg15
(lp556
S'S:1303'
p557
asg19
S'MET_98_A'
p558
sg21
S'LIG_158_A'
p559
sg23
S'H-H'
p560
sbag4
(g5
g6
Ntp561
Rp562
(dp563
g10
(lp564
S'C:3271'
p565
asg15
(lp566
S'C:1874'
p567
asg19
S'PHE_138_A'
p568
sg21
S'LIG_158_A'
p569
sg23
S'H-H'
p570
sbasS'HBD-HBA'
p571
(lp572
g4
(g5
g6
Ntp573
Rp574
(dp575
g10
(lp576
S'N:3283'
p577
asg15
(lp578
S'O:1245'
p579
asg19
S'ASP_93_A'
p580
sg21
S'LIG_158_A'
p581
sg23
g571
sbasS'AR-AR'
p582
(lp583
g4
(g5
g6
Ntp584
Rp585
(dp586
g10
(lp587
S'C:3272'
p588
aS'C:3273'
p589
aS'C:3274'
p590
aS'C:3275'
p591
aS'C:3276'
p592
aS'C:3277'
p593
asg15
(lp594
S'C:1875'
p595
aS'C:1876'
p596
aS'C:1877'
p597
aS'C:1878'
p598
aS'C:1879'
p599
aS'C:1880'
p600
asg19
S'PHE_138_A'
p601
sg21
S'LIG_158_A'
p602
sg23
g582
sbasS'HBA-HBD'
p603
(lp604
g4
(g5
g6
Ntp605
Rp606
(dp607
g10
(lp608
S'N:3284'
p609
asg15
(lp610
S'O:2560'
p611
asg19
S'THR_184_A'
p612
sg21
S'LIG_158_A'
p613
sg23
g603
sbass.