(dp0
I0
(dp1
S'PI-NI'
p2
(lp3
ccopy_reg
_reconstructor
p4
(c__main__
Ph4InteractionInformation
p5
c__builtin__
object
p6
Ntp7
Rp8
(dp9
S'lig_atom'
p10
(lp11
S'N:3274'
p12
asS'env_atom'
p13
(lp14
S'C:1243'
p15
aS'O:1244'
p16
aS'O:1245'
p17
asS'env_residue'
p18
S'ASP_93_A'
p19
sS'lig_residue'
p20
S'LIG_3_A'
p21
sS'interaction_type'
p22
g2
sbag4
(g5
g6
Ntp23
Rp24
(dp25
g10
(lp26
S'N:3276'
p27
asg13
(lp28
S'C:1243'
p29
aS'O:1244'
p30
aS'O:1245'
p31
asg18
S'ASP_93_A'
p32
sg20
S'LIG_3_A'
p33
sg22
S'PI-NI'
p34
sbasS'H-H'
p35
(lp36
g4
(g5
g6
Ntp37
Rp38
(dp39
g10
(lp40
S'C:3263'
p41
aS'C:3264'
p42
aS'C:3268'
p43
asg13
(lp44
S'C:1275'
p45
aS'C:1277'
p46
asg18
S'ILE_96_A'
p47
sg20
S'LIG_3_A'
p48
sg22
g35
sbag4
(g5
g6
Ntp49
Rp50
(dp51
g10
(lp52
S'C:3263'
p53
aS'C:3264'
p54
aS'C:3268'
p55
asg13
(lp56
S'C:1443'
p57
aS'C:1444'
p58
aS'C:1445'
p59
asg18
S'LEU_107_A'
p60
sg20
S'LIG_3_A'
p61
sg22
S'H-H'
p62
sbag4
(g5
g6
Ntp63
Rp64
(dp65
g10
(lp66
S'C:3263'
p67
aS'C:3264'
p68
aS'C:3268'
p69
asg13
(lp70
S'C:1304'
p71
asg18
S'MET_98_A'
p72
sg20
S'LIG_3_A'
p73
sg22
S'H-H'
p74
sbag4
(g5
g6
Ntp75
Rp76
(dp77
g10
(lp78
S'C:3263'
p79
aS'C:3264'
p80
aS'C:3268'
p81
asg13
(lp82
S'S:1303'
p83
asg18
S'MET_98_A'
p84
sg20
S'LIG_3_A'
p85
sg22
S'H-H'
p86
sbag4
(g5
g6
Ntp87
Rp88
(dp89
g10
(lp90
S'C:3263'
p91
aS'C:3264'
p92
aS'C:3268'
p93
asg13
(lp94
S'C:1302'
p95
asg18
S'MET_98_A'
p96
sg20
S'LIG_3_A'
p97
sg22
S'H-H'
p98
sbag4
(g5
g6
Ntp99
Rp100
(dp101
g10
(lp102
S'C:3277'
p103
aS'C:3278'
p104
aS'C:3285'
p105
aS'C:3286'
p106
asg13
(lp107
S'C:1875'
p108
aS'C:1876'
p109
aS'C:1877'
p110
aS'C:1878'
p111
aS'C:1879'
p112
aS'C:1880'
p113
asg18
S'PHE_138_A'
p114
sg20
S'LIG_3_A'
p115
sg22
S'H-H'
p116
sbag4
(g5
g6
Ntp117
Rp118
(dp119
g10
(lp120
S'C:3277'
p121
aS'C:3278'
p122
aS'C:3285'
p123
aS'C:3286'
p124
asg13
(lp125
S'C:1895'
p126
aS'C:1896'
p127
aS'C:1897'
p128
aS'C:1898'
p129
aS'C:1899'
p130
aS'C:1900'
p131
asg18
S'TYR_139_A'
p132
sg20
S'LIG_3_A'
p133
sg22
S'H-H'
p134
sbag4
(g5
g6
Ntp135
Rp136
(dp137
g10
(lp138
S'C:3277'
p139
aS'C:3278'
p140
aS'C:3285'
p141
aS'C:3286'
p142
asg13
(lp143
S'C:1443'
p144
aS'C:1444'
p145
aS'C:1445'
p146
asg18
S'LEU_107_A'
p147
sg20
S'LIG_3_A'
p148
sg22
S'H-H'
p149
sbag4
(g5
g6
Ntp150
Rp151
(dp152
g10
(lp153
S'C:3277'
p154
aS'C:3278'
p155
aS'C:3285'
p156
aS'C:3286'
p157
asg13
(lp158
S'C:1304'
p159
asg18
S'MET_98_A'
p160
sg20
S'LIG_3_A'
p161
sg22
S'H-H'
p162
sbag4
(g5
g6
Ntp163
Rp164
(dp165
g10
(lp166
S'C:3277'
p167
aS'C:3278'
p168
aS'C:3285'
p169
aS'C:3286'
p170
asg13
(lp171
S'S:1303'
p172
asg18
S'MET_98_A'
p173
sg20
S'LIG_3_A'
p174
sg22
S'H-H'
p175
sbag4
(g5
g6
Ntp176
Rp177
(dp178
g10
(lp179
S'C:3264'
p180
aS'C:3265'
p181
aS'C:3266'
p182
aS'C:3267'
p183
aS'C:3268'
p184
asg13
(lp185
S'C:1275'
p186
aS'C:1277'
p187
asg18
S'ILE_96_A'
p188
sg20
S'LIG_3_A'
p189
sg22
S'H-H'
p190
sbag4
(g5
g6
Ntp191
Rp192
(dp193
g10
(lp194
S'C:3264'
p195
aS'C:3265'
p196
aS'C:3266'
p197
aS'C:3267'
p198
aS'C:3268'
p199
asg13
(lp200
S'C:1443'
p201
aS'C:1444'
p202
aS'C:1445'
p203
asg18
S'LEU_107_A'
p204
sg20
S'LIG_3_A'
p205
sg22
S'H-H'
p206
sbag4
(g5
g6
Ntp207
Rp208
(dp209
g10
(lp210
S'C:3264'
p211
aS'C:3265'
p212
aS'C:3266'
p213
aS'C:3267'
p214
aS'C:3268'
p215
asg13
(lp216
S'C:1304'
p217
asg18
S'MET_98_A'
p218
sg20
S'LIG_3_A'
p219
sg22
S'H-H'
p220
sbag4
(g5
g6
Ntp221
Rp222
(dp223
g10
(lp224
S'C:3264'
p225
aS'C:3265'
p226
aS'C:3266'
p227
aS'C:3267'
p228
aS'C:3268'
p229
asg13
(lp230
S'S:1303'
p231
asg18
S'MET_98_A'
p232
sg20
S'LIG_3_A'
p233
sg22
S'H-H'
p234
sbag4
(g5
g6
Ntp235
Rp236
(dp237
g10
(lp238
S'C:3264'
p239
aS'C:3265'
p240
aS'C:3266'
p241
aS'C:3267'
p242
aS'C:3268'
p243
asg13
(lp244
S'C:1302'
p245
asg18
S'MET_98_A'
p246
sg20
S'LIG_3_A'
p247
sg22
S'H-H'
p248
sbag4
(g5
g6
Ntp249
Rp250
(dp251
g10
(lp252
S'C:3280'
p253
aS'O:3281'
p254
aS'C:3282'
p255
aS'O:3283'
p256
aS'C:3284'
p257
asg13
(lp258
S'C:2259'
p259
aS'C:2260'
p260
aS'C:2261'
p261
aS'N:2262'
p262
aS'C:2263'
p263
asg18
S'TRP_162_A'
p264
sg20
S'LIG_3_A'
p265
sg22
S'H-H'
p266
sbag4
(g5
g6
Ntp267
Rp268
(dp269
g10
(lp270
S'C:3280'
p271
aS'O:3281'
p272
aS'C:3282'
p273
aS'O:3283'
p274
aS'C:3284'
p275
asg13
(lp276
S'C:1875'
p277
aS'C:1876'
p278
aS'C:1877'
p279
aS'C:1878'
p280
aS'C:1879'
p281
aS'C:1880'
p282
asg18
S'PHE_138_A'
p283
sg20
S'LIG_3_A'
p284
sg22
S'H-H'
p285
sbag4
(g5
g6
Ntp286
Rp287
(dp288
g10
(lp289
S'C:3280'
p290
aS'O:3281'
p291
aS'C:3282'
p292
aS'O:3283'
p293
aS'C:3284'
p294
asg13
(lp295
S'C:2261'
p296
aS'C:2263'
p297
aS'C:2264'
p298
aS'C:2265'
p299
aS'C:2266'
p300
aS'C:2267'
p301
asg18
S'TRP_162_A'
p302
sg20
S'LIG_3_A'
p303
sg22
S'H-H'
p304
sbag4
(g5
g6
Ntp305
Rp306
(dp307
g10
(lp308
S'C:3280'
p309
aS'O:3281'
p310
aS'C:3282'
p311
aS'O:3283'
p312
aS'C:3284'
p313
asg13
(lp314
S'C:1443'
p315
aS'C:1444'
p316
aS'C:1445'
p317
asg18
S'LEU_107_A'
p318
sg20
S'LIG_3_A'
p319
sg22
S'H-H'
p320
sbag4
(g5
g6
Ntp321
Rp322
(dp323
g10
(lp324
S'C:3280'
p325
aS'O:3281'
p326
aS'C:3282'
p327
aS'O:3283'
p328
aS'C:3284'
p329
asg13
(lp330
S'C:2069'
p331
aS'C:2070'
p332
aS'C:2071'
p333
asg18
S'VAL_150_A'
p334
sg20
S'LIG_3_A'
p335
sg22
S'H-H'
p336
sbag4
(g5
g6
Ntp337
Rp338
(dp339
g10
(lp340
S'C:3280'
p341
aS'O:3281'
p342
aS'C:3282'
p343
aS'O:3283'
p344
aS'C:3284'
p345
asg13
(lp346
S'C:1304'
p347
asg18
S'MET_98_A'
p348
sg20
S'LIG_3_A'
p349
sg22
S'H-H'
p350
sbag4
(g5
g6
Ntp351
Rp352
(dp353
g10
(lp354
S'C:3280'
p355
aS'O:3281'
p356
aS'C:3282'
p357
aS'O:3283'
p358
aS'C:3284'
p359
asg13
(lp360
S'S:1303'
p361
asg18
S'MET_98_A'
p362
sg20
S'LIG_3_A'
p363
sg22
S'H-H'
p364
sbag4
(g5
g6
Ntp365
Rp366
(dp367
g10
(lp368
S'C:3277'
p369
aS'C:3278'
p370
aS'C:3279'
p371
aS'C:3280'
p372
aS'C:3284'
p373
aS'C:3285'
p374
asg13
(lp375
S'C:1875'
p376
aS'C:1876'
p377
aS'C:1877'
p378
aS'C:1878'
p379
aS'C:1879'
p380
aS'C:1880'
p381
asg18
S'PHE_138_A'
p382
sg20
S'LIG_3_A'
p383
sg22
S'H-H'
p384
sbag4
(g5
g6
Ntp385
Rp386
(dp387
g10
(lp388
S'C:3277'
p389
aS'C:3278'
p390
aS'C:3279'
p391
aS'C:3280'
p392
aS'C:3284'
p393
aS'C:3285'
p394
asg13
(lp395
S'C:1443'
p396
aS'C:1444'
p397
aS'C:1445'
p398
asg18
S'LEU_107_A'
p399
sg20
S'LIG_3_A'
p400
sg22
S'H-H'
p401
sbag4
(g5
g6
Ntp402
Rp403
(dp404
g10
(lp405
S'C:3277'
p406
aS'C:3278'
p407
aS'C:3279'
p408
aS'C:3280'
p409
aS'C:3284'
p410
aS'C:3285'
p411
asg13
(lp412
S'C:2069'
p413
aS'C:2070'
p414
aS'C:2071'
p415
asg18
S'VAL_150_A'
p416
sg20
S'LIG_3_A'
p417
sg22
S'H-H'
p418
sbag4
(g5
g6
Ntp419
Rp420
(dp421
g10
(lp422
S'C:3277'
p423
aS'C:3278'
p424
aS'C:3279'
p425
aS'C:3280'
p426
aS'C:3284'
p427
aS'C:3285'
p428
asg13
(lp429
S'C:1304'
p430
asg18
S'MET_98_A'
p431
sg20
S'LIG_3_A'
p432
sg22
S'H-H'
p433
sbag4
(g5
g6
Ntp434
Rp435
(dp436
g10
(lp437
S'C:3277'
p438
aS'C:3278'
p439
aS'C:3279'
p440
aS'C:3280'
p441
aS'C:3284'
p442
aS'C:3285'
p443
asg13
(lp444
S'S:1303'
p445
asg18
S'MET_98_A'
p446
sg20
S'LIG_3_A'
p447
sg22
S'H-H'
p448
sbass.