(dp0
I0
(dp1
S'H-H'
p2
(lp3
ccopy_reg
_reconstructor
p4
(c__main__
Ph4InteractionInformation
p5
c__builtin__
object
p6
Ntp7
Rp8
(dp9
S'lig_atom'
p10
(lp11
S'C:3316'
p12
aS'C:3317'
p13
aS'C:3322'
p14
asS'env_atom'
p15
(lp16
S'C:1458'
p17
aS'C:1459'
p18
aS'C:1460'
p19
asS'env_residue'
p20
S'LEU_107_A'
p21
sS'lig_residue'
p22
S'LIG_9_A'
p23
sS'interaction_type'
p24
g2
sbag4
(g5
g6
Ntp25
Rp26
(dp27
g10
(lp28
S'C:3316'
p29
aS'C:3317'
p30
aS'C:3322'
p31
asg15
(lp32
S'C:1319'
p33
asg20
S'MET_98_A'
p34
sg22
S'LIG_9_A'
p35
sg24
S'H-H'
p36
sbag4
(g5
g6
Ntp37
Rp38
(dp39
g10
(lp40
S'C:3316'
p41
aS'C:3317'
p42
aS'C:3322'
p43
asg15
(lp44
S'S:1318'
p45
asg20
S'MET_98_A'
p46
sg22
S'LIG_9_A'
p47
sg24
S'H-H'
p48
sbag4
(g5
g6
Ntp49
Rp50
(dp51
g10
(lp52
S'C:3316'
p53
aS'C:3317'
p54
aS'C:3322'
p55
asg15
(lp56
S'C:1317'
p57
asg20
S'MET_98_A'
p58
sg22
S'LIG_9_A'
p59
sg24
S'H-H'
p60
sbag4
(g5
g6
Ntp61
Rp62
(dp63
g10
(lp64
S'C:3316'
p65
aS'C:3317'
p66
aS'C:3322'
p67
asg15
(lp68
S'C:1889'
p69
asg20
S'PHE_138_A'
p70
sg22
S'LIG_9_A'
p71
sg24
S'H-H'
p72
sbag4
(g5
g6
Ntp73
Rp74
(dp75
g10
(lp76
S'C:3320'
p77
aS'C:3324'
p78
aS'O:3325'
p79
asg15
(lp80
S'C:1458'
p81
aS'C:1459'
p82
aS'C:1460'
p83
asg20
S'LEU_107_A'
p84
sg22
S'LIG_9_A'
p85
sg24
S'H-H'
p86
sbag4
(g5
g6
Ntp87
Rp88
(dp89
g10
(lp90
S'C:3320'
p91
aS'C:3324'
p92
aS'O:3325'
p93
asg15
(lp94
S'S:1318'
p95
asg20
S'MET_98_A'
p96
sg22
S'LIG_9_A'
p97
sg24
S'H-H'
p98
sbag4
(g5
g6
Ntp99
Rp100
(dp101
g10
(lp102
S'C:3320'
p103
aS'C:3324'
p104
aS'O:3325'
p105
asg15
(lp106
S'C:1317'
p107
asg20
S'MET_98_A'
p108
sg22
S'LIG_9_A'
p109
sg24
S'H-H'
p110
sbag4
(g5
g6
Ntp111
Rp112
(dp113
g10
(lp114
S'C:3320'
p115
aS'C:3324'
p116
aS'O:3325'
p117
asg15
(lp118
S'C:1500'
p119
asg20
S'ILE_110_A'
p120
sg22
S'LIG_9_A'
p121
sg24
S'H-H'
p122
sbag4
(g5
g6
Ntp123
Rp124
(dp125
g10
(lp126
S'C:3320'
p127
aS'C:3321'
p128
aS'O:3323'
p129
aS'C:3324'
p130
asg15
(lp131
S'C:1458'
p132
aS'C:1459'
p133
aS'C:1460'
p134
asg20
S'LEU_107_A'
p135
sg22
S'LIG_9_A'
p136
sg24
S'H-H'
p137
sbag4
(g5
g6
Ntp138
Rp139
(dp140
g10
(lp141
S'C:3320'
p142
aS'C:3321'
p143
aS'O:3323'
p144
aS'C:3324'
p145
asg15
(lp146
S'S:1318'
p147
asg20
S'MET_98_A'
p148
sg22
S'LIG_9_A'
p149
sg24
S'H-H'
p150
sbag4
(g5
g6
Ntp151
Rp152
(dp153
g10
(lp154
S'C:3320'
p155
aS'C:3321'
p156
aS'O:3323'
p157
aS'C:3324'
p158
asg15
(lp159
S'C:1317'
p160
asg20
S'MET_98_A'
p161
sg22
S'LIG_9_A'
p162
sg24
S'H-H'
p163
sbag4
(g5
g6
Ntp164
Rp165
(dp166
g10
(lp167
S'C:3320'
p168
aS'C:3321'
p169
aS'O:3323'
p170
aS'C:3324'
p171
asg15
(lp172
S'C:1316'
p173
asg20
S'MET_98_A'
p174
sg22
S'LIG_9_A'
p175
sg24
S'H-H'
p176
sbag4
(g5
g6
Ntp177
Rp178
(dp179
g10
(lp180
S'C:3320'
p181
aS'C:3321'
p182
aS'O:3323'
p183
aS'C:3324'
p184
asg15
(lp185
S'C:1457'
p186
asg20
S'LEU_107_A'
p187
sg22
S'LIG_9_A'
p188
sg24
S'H-H'
p189
sbag4
(g5
g6
Ntp190
Rp191
(dp192
g10
(lp193
S'C:3298'
p194
aS'C:3299'
p195
aS'C:3300'
p196
aS'C:3301'
p197
aS'C:3302'
p198
aS'C:3307'
p199
asg15
(lp200
S'C:2274'
p201
aS'C:2275'
p202
aS'C:2276'
p203
aS'N:2277'
p204
aS'C:2278'
p205
asg20
S'TRP_162_A'
p206
sg22
S'LIG_9_A'
p207
sg24
S'H-H'
p208
sbag4
(g5
g6
Ntp209
Rp210
(dp211
g10
(lp212
S'C:3298'
p213
aS'C:3299'
p214
aS'C:3300'
p215
aS'C:3301'
p216
aS'C:3302'
p217
aS'C:3307'
p218
asg15
(lp219
S'C:1890'
p220
aS'C:1891'
p221
aS'C:1892'
p222
aS'C:1893'
p223
aS'C:1894'
p224
aS'C:1895'
p225
asg20
S'PHE_138_A'
p226
sg22
S'LIG_9_A'
p227
sg24
S'H-H'
p228
sbag4
(g5
g6
Ntp229
Rp230
(dp231
g10
(lp232
S'C:3298'
p233
aS'C:3299'
p234
aS'C:3300'
p235
aS'C:3301'
p236
aS'C:3302'
p237
aS'C:3307'
p238
asg15
(lp239
S'C:2276'
p240
aS'C:2278'
p241
aS'C:2279'
p242
aS'C:2280'
p243
aS'C:2281'
p244
aS'C:2282'
p245
asg20
S'TRP_162_A'
p246
sg22
S'LIG_9_A'
p247
sg24
S'H-H'
p248
sbag4
(g5
g6
Ntp249
Rp250
(dp251
g10
(lp252
S'C:3298'
p253
aS'C:3299'
p254
aS'C:3300'
p255
aS'C:3301'
p256
aS'C:3302'
p257
aS'C:3307'
p258
asg15
(lp259
S'C:1392'
p260
aS'C:1393'
p261
aS'C:1394'
p262
asg20
S'LEU_103_A'
p263
sg22
S'LIG_9_A'
p264
sg24
S'H-H'
p265
sbag4
(g5
g6
Ntp266
Rp267
(dp268
g10
(lp269
S'C:3298'
p270
aS'C:3299'
p271
aS'C:3300'
p272
aS'C:3301'
p273
aS'C:3302'
p274
aS'C:3307'
p275
asg15
(lp276
S'C:1458'
p277
aS'C:1459'
p278
aS'C:1460'
p279
asg20
S'LEU_107_A'
p280
sg22
S'LIG_9_A'
p281
sg24
S'H-H'
p282
sbag4
(g5
g6
Ntp283
Rp284
(dp285
g10
(lp286
S'C:3298'
p287
aS'C:3299'
p288
aS'C:3300'
p289
aS'C:3301'
p290
aS'C:3302'
p291
aS'C:3307'
p292
asg15
(lp293
S'C:2084'
p294
aS'C:2085'
p295
aS'C:2086'
p296
asg20
S'VAL_150_A'
p297
sg22
S'LIG_9_A'
p298
sg24
S'H-H'
p299
sbag4
(g5
g6
Ntp300
Rp301
(dp302
g10
(lp303
S'C:3298'
p304
aS'C:3299'
p305
aS'C:3300'
p306
aS'C:3301'
p307
aS'C:3302'
p308
aS'C:3307'
p309
asg15
(lp310
S'C:1319'
p311
asg20
S'MET_98_A'
p312
sg22
S'LIG_9_A'
p313
sg24
S'H-H'
p314
sbag4
(g5
g6
Ntp315
Rp316
(dp317
g10
(lp318
S'C:3298'
p319
aS'C:3299'
p320
aS'C:3300'
p321
aS'C:3301'
p322
aS'C:3302'
p323
aS'C:3307'
p324
asg15
(lp325
S'S:1318'
p326
asg20
S'MET_98_A'
p327
sg22
S'LIG_9_A'
p328
sg24
S'H-H'
p329
sbag4
(g5
g6
Ntp330
Rp331
(dp332
g10
(lp333
S'C:3298'
p334
aS'C:3299'
p335
aS'C:3300'
p336
aS'C:3301'
p337
aS'C:3302'
p338
aS'C:3307'
p339
asg15
(lp340
S'C:1317'
p341
asg20
S'MET_98_A'
p342
sg22
S'LIG_9_A'
p343
sg24
S'H-H'
p344
sbag4
(g5
g6
Ntp345
Rp346
(dp347
g10
(lp348
S'C:3298'
p349
aS'C:3299'
p350
aS'C:3300'
p351
aS'C:3301'
p352
aS'C:3302'
p353
aS'C:3307'
p354
asg15
(lp355
S'C:1457'
p356
asg20
S'LEU_107_A'
p357
sg22
S'LIG_9_A'
p358
sg24
S'H-H'
p359
sbag4
(g5
g6
Ntp360
Rp361
(dp362
g10
(lp363
S'C:3298'
p364
aS'C:3299'
p365
aS'C:3300'
p366
aS'C:3301'
p367
aS'C:3302'
p368
aS'C:3307'
p369
asg15
(lp370
S'C:1889'
p371
asg20
S'PHE_138_A'
p372
sg22
S'LIG_9_A'
p373
sg24
S'H-H'
p374
sbag4
(g5
g6
Ntp375
Rp376
(dp377
g10
(lp378
S'C:3298'
p379
aS'C:3299'
p380
aS'C:3300'
p381
aS'C:3301'
p382
aS'C:3302'
p383
aS'C:3307'
p384
asg15
(lp385
S'C:2273'
p386
asg20
S'TRP_162_A'
p387
sg22
S'LIG_9_A'
p388
sg24
S'H-H'
p389
sbag4
(g5
g6
Ntp390
Rp391
(dp392
g10
(lp393
S'C:3300'
p394
aS'C:3301'
p395
aS'C:3308'
p396
aS'N:3313'
p397
aS'C:3314'
p398
aS'N:3315'
p399
asg15
(lp400
S'C:1890'
p401
aS'C:1891'
p402
aS'C:1892'
p403
aS'C:1893'
p404
aS'C:1894'
p405
aS'C:1895'
p406
asg20
S'PHE_138_A'
p407
sg22
S'LIG_9_A'
p408
sg24
S'H-H'
p409
sbag4
(g5
g6
Ntp410
Rp411
(dp412
g10
(lp413
S'C:3300'
p414
aS'C:3301'
p415
aS'C:3308'
p416
aS'N:3313'
p417
aS'C:3314'
p418
aS'N:3315'
p419
asg15
(lp420
S'C:1458'
p421
aS'C:1459'
p422
aS'C:1460'
p423
asg20
S'LEU_107_A'
p424
sg22
S'LIG_9_A'
p425
sg24
S'H-H'
p426
sbag4
(g5
g6
Ntp427
Rp428
(dp429
g10
(lp430
S'C:3300'
p431
aS'C:3301'
p432
aS'C:3308'
p433
aS'N:3313'
p434
aS'C:3314'
p435
aS'N:3315'
p436
asg15
(lp437
S'C:2084'
p438
aS'C:2085'
p439
aS'C:2086'
p440
asg20
S'VAL_150_A'
p441
sg22
S'LIG_9_A'
p442
sg24
S'H-H'
p443
sbag4
(g5
g6
Ntp444
Rp445
(dp446
g10
(lp447
S'C:3300'
p448
aS'C:3301'
p449
aS'C:3308'
p450
aS'N:3313'
p451
aS'C:3314'
p452
aS'N:3315'
p453
asg15
(lp454
S'C:1319'
p455
asg20
S'MET_98_A'
p456
sg22
S'LIG_9_A'
p457
sg24
S'H-H'
p458
sbag4
(g5
g6
Ntp459
Rp460
(dp461
g10
(lp462
S'C:3300'
p463
aS'C:3301'
p464
aS'C:3308'
p465
aS'N:3313'
p466
aS'C:3314'
p467
aS'N:3315'
p468
asg15
(lp469
S'S:1318'
p470
asg20
S'MET_98_A'
p471
sg22
S'LIG_9_A'
p472
sg24
S'H-H'
p473
sbag4
(g5
g6
Ntp474
Rp475
(dp476
g10
(lp477
S'C:3300'
p478
aS'C:3301'
p479
aS'C:3308'
p480
aS'N:3313'
p481
aS'C:3314'
p482
aS'N:3315'
p483
asg15
(lp484
S'C:1317'
p485
asg20
S'MET_98_A'
p486
sg22
S'LIG_9_A'
p487
sg24
S'H-H'
p488
sbag4
(g5
g6
Ntp489
Rp490
(dp491
g10
(lp492
S'C:3300'
p493
aS'C:3301'
p494
aS'C:3308'
p495
aS'N:3313'
p496
aS'C:3314'
p497
aS'N:3315'
p498
asg15
(lp499
S'C:1457'
p500
asg20
S'LEU_107_A'
p501
sg22
S'LIG_9_A'
p502
sg24
S'H-H'
p503
sbag4
(g5
g6
Ntp504
Rp505
(dp506
g10
(lp507
S'C:3300'
p508
aS'C:3301'
p509
aS'C:3308'
p510
aS'N:3313'
p511
aS'C:3314'
p512
aS'N:3315'
p513
asg15
(lp514
S'C:1889'
p515
asg20
S'PHE_138_A'
p516
sg22
S'LIG_9_A'
p517
sg24
S'H-H'
p518
sbag4
(g5
g6
Ntp519
Rp520
(dp521
g10
(lp522
S'F:3297'
p523
asg15
(lp524
S'C:2274'
p525
aS'C:2275'
p526
aS'C:2276'
p527
aS'N:2277'
p528
aS'C:2278'
p529
asg20
S'TRP_162_A'
p530
sg22
S'LIG_9_A'
p531
sg24
S'H-H'
p532
sbag4
(g5
g6
Ntp533
Rp534
(dp535
g10
(lp536
S'F:3297'
p537
asg15
(lp538
S'C:1890'
p539
aS'C:1891'
p540
aS'C:1892'
p541
aS'C:1893'
p542
aS'C:1894'
p543
aS'C:1895'
p544
asg20
S'PHE_138_A'
p545
sg22
S'LIG_9_A'
p546
sg24
S'H-H'
p547
sbag4
(g5
g6
Ntp548
Rp549
(dp550
g10
(lp551
S'F:3297'
p552
asg15
(lp553
S'C:2276'
p554
aS'C:2278'
p555
aS'C:2279'
p556
aS'C:2280'
p557
aS'C:2281'
p558
aS'C:2282'
p559
asg20
S'TRP_162_A'
p560
sg22
S'LIG_9_A'
p561
sg24
S'H-H'
p562
sbag4
(g5
g6
Ntp563
Rp564
(dp565
g10
(lp566
S'F:3297'
p567
asg15
(lp568
S'C:1392'
p569
aS'C:1393'
p570
aS'C:1394'
p571
asg20
S'LEU_103_A'
p572
sg22
S'LIG_9_A'
p573
sg24
S'H-H'
p574
sbag4
(g5
g6
Ntp575
Rp576
(dp577
g10
(lp578
S'F:3297'
p579
asg15
(lp580
S'C:2084'
p581
aS'C:2085'
p582
aS'C:2086'
p583
asg20
S'VAL_150_A'
p584
sg22
S'LIG_9_A'
p585
sg24
S'H-H'
p586
sbag4
(g5
g6
Ntp587
Rp588
(dp589
g10
(lp590
S'F:3297'
p591
asg15
(lp592
S'C:1319'
p593
asg20
S'MET_98_A'
p594
sg22
S'LIG_9_A'
p595
sg24
S'H-H'
p596
sbag4
(g5
g6
Ntp597
Rp598
(dp599
g10
(lp600
S'F:3297'
p601
asg15
(lp602
S'S:1318'
p603
asg20
S'MET_98_A'
p604
sg22
S'LIG_9_A'
p605
sg24
S'H-H'
p606
sbag4
(g5
g6
Ntp607
Rp608
(dp609
g10
(lp610
S'F:3297'
p611
asg15
(lp612
S'C:1391'
p613
asg20
S'LEU_103_A'
p614
sg22
S'LIG_9_A'
p615
sg24
S'H-H'
p616
sbag4
(g5
g6
Ntp617
Rp618
(dp619
g10
(lp620
S'F:3297'
p621
asg15
(lp622
S'C:2273'
p623
asg20
S'TRP_162_A'
p624
sg22
S'LIG_9_A'
p625
sg24
S'H-H'
p626
sbasS'HBD-HBA'
p627
(lp628
g4
(g5
g6
Ntp629
Rp630
(dp631
g10
(lp632
S'O:3306'
p633
asg15
(lp634
S'O:1390'
p635
asg20
S'LEU_103_A'
p636
sg22
S'LIG_9_A'
p637
sg24
g627
sbag4
(g5
g6
Ntp638
Rp639
(dp640
g10
(lp641
S'O:3306'
p642
asg15
(lp643
S'N:2277'
p644
asg20
S'TRP_162_A'
p645
sg22
S'LIG_9_A'
p646
sg24
S'HBD-HBA'
p647
sbasS'PI-AR'
p648
(lp649
g4
(g5
g6
Ntp650
Rp651
(dp652
g10
(lp653
S'C:3308'
p654
aS'N:3309'
p655
aS'N:3313'
p656
asg15
(lp657
S'C:1890'
p658
aS'C:1891'
p659
aS'C:1892'
p660
aS'C:1893'
p661
aS'C:1894'
p662
aS'C:1895'
p663
asg20
S'PHE_138_A'
p664
sg22
S'LIG_9_A'
p665
sg24
g648
sbasS'HBA-HBD'
p666
(lp667
g4
(g5
g6
Ntp668
Rp669
(dp670
g10
(lp671
S'N:3303'
p672
asg15
(lp673
S'O:1916'
p674
asg20
S'TYR_139_A'
p675
sg22
S'LIG_9_A'
p676
sg24
g666
sbag4
(g5
g6
Ntp677
Rp678
(dp679
g10
(lp680
S'O:3325'
p681
asg15
(lp682
S'N:679'
p683
asg20
S'LYS_58_A'
p684
sg22
S'LIG_9_A'
p685
sg24
S'HBA-HBD'
p686
sbag4
(g5
g6
Ntp687
Rp688
(dp689
g10
(lp690
S'O:3306'
p691
asg15
(lp692
S'N:2277'
p693
aS'H:2283'
p694
asg20
S'TRP_162_A'
p695
sg22
S'LIG_9_A'
p696
sg24
S'HBA-HBD'
p697
sbass.