(dp0
I0
(dp1
S'H-H'
p2
(lp3
ccopy_reg
_reconstructor
p4
(c__main__
Ph4InteractionInformation
p5
c__builtin__
object
p6
Ntp7
Rp8
(dp9
S'lig_atom'
p10
(lp11
S'C:3268'
p12
aS'C:3298'
p13
aS'C:3299'
p14
asS'env_atom'
p15
(lp16
S'C:616'
p17
aS'C:619'
p18
asS'env_residue'
p19
S'ALA_55_A'
p20
sS'lig_residue'
p21
S'LIG_127_A'
p22
sS'interaction_type'
p23
g2
sbag4
(g5
g6
Ntp24
Rp25
(dp26
g10
(lp27
S'C:3268'
p28
aS'C:3298'
p29
aS'C:3299'
p30
asg15
(lp31
S'C:1275'
p32
aS'C:1277'
p33
asg19
S'ILE_96_A'
p34
sg21
S'LIG_127_A'
p35
sg23
S'H-H'
p36
sbag4
(g5
g6
Ntp37
Rp38
(dp39
g10
(lp40
S'C:3268'
p41
aS'C:3298'
p42
aS'C:3299'
p43
asg15
(lp44
S'C:1443'
p45
aS'C:1444'
p46
aS'C:1445'
p47
asg19
S'LEU_107_A'
p48
sg21
S'LIG_127_A'
p49
sg23
S'H-H'
p50
sbag4
(g5
g6
Ntp51
Rp52
(dp53
g10
(lp54
S'C:3268'
p55
aS'C:3298'
p56
aS'C:3299'
p57
asg15
(lp58
S'S:1303'
p59
asg19
S'MET_98_A'
p60
sg21
S'LIG_127_A'
p61
sg23
S'H-H'
p62
sbag4
(g5
g6
Ntp63
Rp64
(dp65
g10
(lp66
S'C:3268'
p67
aS'C:3298'
p68
aS'C:3299'
p69
asg15
(lp70
S'C:1302'
p71
asg19
S'MET_98_A'
p72
sg21
S'LIG_127_A'
p73
sg23
S'H-H'
p74
sbag4
(g5
g6
Ntp75
Rp76
(dp77
g10
(lp78
S'C:3278'
p79
aS'C:3279'
p80
aS'C:3280'
p81
aS'C:3283'
p82
asg15
(lp83
S'C:1875'
p84
aS'C:1876'
p85
aS'C:1877'
p86
aS'C:1878'
p87
aS'C:1879'
p88
aS'C:1880'
p89
asg19
S'PHE_138_A'
p90
sg21
S'LIG_127_A'
p91
sg23
S'H-H'
p92
sbag4
(g5
g6
Ntp93
Rp94
(dp95
g10
(lp96
S'C:3278'
p97
aS'C:3279'
p98
aS'C:3280'
p99
aS'C:3283'
p100
asg15
(lp101
S'C:1895'
p102
aS'C:1896'
p103
aS'C:1897'
p104
aS'C:1898'
p105
aS'C:1899'
p106
aS'C:1900'
p107
asg19
S'TYR_139_A'
p108
sg21
S'LIG_127_A'
p109
sg23
S'H-H'
p110
sbag4
(g5
g6
Ntp111
Rp112
(dp113
g10
(lp114
S'C:3278'
p115
aS'C:3279'
p116
aS'C:3280'
p117
aS'C:3283'
p118
asg15
(lp119
S'C:1443'
p120
aS'C:1444'
p121
aS'C:1445'
p122
asg19
S'LEU_107_A'
p123
sg21
S'LIG_127_A'
p124
sg23
S'H-H'
p125
sbag4
(g5
g6
Ntp126
Rp127
(dp128
g10
(lp129
S'C:3278'
p130
aS'C:3279'
p131
aS'C:3280'
p132
aS'C:3283'
p133
asg15
(lp134
S'C:1304'
p135
asg19
S'MET_98_A'
p136
sg21
S'LIG_127_A'
p137
sg23
S'H-H'
p138
sbag4
(g5
g6
Ntp139
Rp140
(dp141
g10
(lp142
S'C:3278'
p143
aS'C:3279'
p144
aS'C:3280'
p145
aS'C:3283'
p146
asg15
(lp147
S'S:1303'
p148
asg19
S'MET_98_A'
p149
sg21
S'LIG_127_A'
p150
sg23
S'H-H'
p151
sbag4
(g5
g6
Ntp152
Rp153
(dp154
g10
(lp155
S'C:3278'
p156
aS'C:3279'
p157
aS'C:3280'
p158
aS'C:3283'
p159
asg15
(lp160
S'C:1442'
p161
asg19
S'LEU_107_A'
p162
sg21
S'LIG_127_A'
p163
sg23
S'H-H'
p164
sbag4
(g5
g6
Ntp165
Rp166
(dp167
g10
(lp168
S'C:3278'
p169
aS'C:3279'
p170
aS'C:3280'
p171
aS'C:3283'
p172
asg15
(lp173
S'C:1874'
p174
asg19
S'PHE_138_A'
p175
sg21
S'LIG_127_A'
p176
sg23
S'H-H'
p177
sbag4
(g5
g6
Ntp178
Rp179
(dp180
g10
(lp181
S'N:3275'
p182
aS'N:3276'
p183
aS'C:3277'
p184
aS'C:3278'
p185
aS'C:3279'
p186
asg15
(lp187
S'C:1875'
p188
aS'C:1876'
p189
aS'C:1877'
p190
aS'C:1878'
p191
aS'C:1879'
p192
aS'C:1880'
p193
asg19
S'PHE_138_A'
p194
sg21
S'LIG_127_A'
p195
sg23
S'H-H'
p196
sbag4
(g5
g6
Ntp197
Rp198
(dp199
g10
(lp200
S'N:3275'
p201
aS'N:3276'
p202
aS'C:3277'
p203
aS'C:3278'
p204
aS'C:3279'
p205
asg15
(lp206
S'C:1895'
p207
aS'C:1896'
p208
aS'C:1897'
p209
aS'C:1898'
p210
aS'C:1899'
p211
aS'C:1900'
p212
asg19
S'TYR_139_A'
p213
sg21
S'LIG_127_A'
p214
sg23
S'H-H'
p215
sbag4
(g5
g6
Ntp216
Rp217
(dp218
g10
(lp219
S'N:3275'
p220
aS'N:3276'
p221
aS'C:3277'
p222
aS'C:3278'
p223
aS'C:3279'
p224
asg15
(lp225
S'C:1443'
p226
aS'C:1444'
p227
aS'C:1445'
p228
asg19
S'LEU_107_A'
p229
sg21
S'LIG_127_A'
p230
sg23
S'H-H'
p231
sbag4
(g5
g6
Ntp232
Rp233
(dp234
g10
(lp235
S'N:3275'
p236
aS'N:3276'
p237
aS'C:3277'
p238
aS'C:3278'
p239
aS'C:3279'
p240
asg15
(lp241
S'S:1303'
p242
asg19
S'MET_98_A'
p243
sg21
S'LIG_127_A'
p244
sg23
S'H-H'
p245
sbag4
(g5
g6
Ntp246
Rp247
(dp248
g10
(lp249
S'N:3275'
p250
aS'N:3276'
p251
aS'C:3277'
p252
aS'C:3278'
p253
aS'C:3279'
p254
asg15
(lp255
S'C:1442'
p256
asg19
S'LEU_107_A'
p257
sg21
S'LIG_127_A'
p258
sg23
S'H-H'
p259
sbag4
(g5
g6
Ntp260
Rp261
(dp262
g10
(lp263
S'N:3275'
p264
aS'N:3276'
p265
aS'C:3277'
p266
aS'C:3278'
p267
aS'C:3279'
p268
asg15
(lp269
S'C:1874'
p270
asg19
S'PHE_138_A'
p271
sg21
S'LIG_127_A'
p272
sg23
S'H-H'
p273
sbag4
(g5
g6
Ntp274
Rp275
(dp276
g10
(lp277
S'C:3270'
p278
aS'C:3271'
p279
aS'C:3272'
p280
aS'C:3273'
p281
aS'C:3274'
p282
aS'C:3291'
p283
asg15
(lp284
S'C:1304'
p285
asg19
S'MET_98_A'
p286
sg21
S'LIG_127_A'
p287
sg23
S'H-H'
p288
sbag4
(g5
g6
Ntp289
Rp290
(dp291
g10
(lp292
S'C:3270'
p293
aS'C:3271'
p294
aS'C:3272'
p295
aS'C:3273'
p296
aS'C:3274'
p297
aS'C:3291'
p298
asg15
(lp299
S'S:1303'
p300
asg19
S'MET_98_A'
p301
sg21
S'LIG_127_A'
p302
sg23
S'H-H'
p303
sbag4
(g5
g6
Ntp304
Rp305
(dp306
g10
(lp307
S'C:3270'
p308
aS'C:3271'
p309
aS'C:3272'
p310
aS'C:3273'
p311
aS'C:3274'
p312
aS'C:3291'
p313
asg15
(lp314
S'C:1302'
p315
asg19
S'MET_98_A'
p316
sg21
S'LIG_127_A'
p317
sg23
S'H-H'
p318
sbag4
(g5
g6
Ntp319
Rp320
(dp321
g10
(lp322
S'C:3270'
p323
aS'C:3271'
p324
aS'C:3272'
p325
aS'C:3273'
p326
aS'C:3274'
p327
aS'C:3291'
p328
asg15
(lp329
S'C:1874'
p330
asg19
S'PHE_138_A'
p331
sg21
S'LIG_127_A'
p332
sg23
S'H-H'
p333
sbag4
(g5
g6
Ntp334
Rp335
(dp336
g10
(lp337
S'C:3287'
p338
aS'F:3288'
p339
aS'F:3289'
p340
aS'F:3290'
p341
asg15
(lp342
S'C:1895'
p343
aS'C:1896'
p344
aS'C:1897'
p345
aS'C:1898'
p346
aS'C:1899'
p347
aS'C:1900'
p348
asg19
S'TYR_139_A'
p349
sg21
S'LIG_127_A'
p350
sg23
S'H-H'
p351
sbag4
(g5
g6
Ntp352
Rp353
(dp354
g10
(lp355
S'C:3287'
p356
aS'F:3288'
p357
aS'F:3289'
p358
aS'F:3290'
p359
asg15
(lp360
S'C:1443'
p361
aS'C:1444'
p362
aS'C:1445'
p363
asg19
S'LEU_107_A'
p364
sg21
S'LIG_127_A'
p365
sg23
S'H-H'
p366
sbag4
(g5
g6
Ntp367
Rp368
(dp369
g10
(lp370
S'C:3287'
p371
aS'F:3288'
p372
aS'F:3289'
p373
aS'F:3290'
p374
asg15
(lp375
S'C:1498'
p376
aS'C:1501'
p377
asg19
S'ALA_111_A'
p378
sg21
S'LIG_127_A'
p379
sg23
S'H-H'
p380
sbag4
(g5
g6
Ntp381
Rp382
(dp383
g10
(lp384
S'C:3287'
p385
aS'F:3288'
p386
aS'F:3289'
p387
aS'F:3290'
p388
asg15
(lp389
S'C:1851'
p390
aS'C:1852'
p391
aS'C:1853'
p392
asg19
S'VAL_136_A'
p393
sg21
S'LIG_127_A'
p394
sg23
S'H-H'
p395
sbag4
(g5
g6
Ntp396
Rp397
(dp398
g10
(lp399
S'C:3287'
p400
aS'F:3288'
p401
aS'F:3289'
p402
aS'F:3290'
p403
asg15
(lp404
S'C:1442'
p405
asg19
S'LEU_107_A'
p406
sg21
S'LIG_127_A'
p407
sg23
S'H-H'
p408
sbag4
(g5
g6
Ntp409
Rp410
(dp411
g10
(lp412
S'C:3287'
p413
aS'F:3288'
p414
aS'F:3289'
p415
aS'F:3290'
p416
asg15
(lp417
S'C:1874'
p418
asg19
S'PHE_138_A'
p419
sg21
S'LIG_127_A'
p420
sg23
S'H-H'
p421
sbasS'HBA-HBD'
p422
(lp423
g4
(g5
g6
Ntp424
Rp425
(dp426
g10
(lp427
S'O:3284'
p428
asg15
(lp429
S'O:1901'
p430
asg19
S'TYR_139_A'
p431
sg21
S'LIG_127_A'
p432
sg23
g422
sbag4
(g5
g6
Ntp433
Rp434
(dp435
g10
(lp436
S'O:3294'
p437
asg15
(lp438
S'O:2560'
p439
asg19
S'THR_184_A'
p440
sg21
S'LIG_127_A'
p441
sg23
S'HBA-HBD'
p442
sbag4
(g5
g6
Ntp443
Rp444
(dp445
g10
(lp446
S'O:3300'
p447
asg15
(lp448
S'N:664'
p449
asg19
S'LYS_58_A'
p450
sg21
S'LIG_127_A'
p451
sg23
S'HBA-HBD'
p452
sbass.