(dp0
I0
(dp1
S'H-H'
p2
(lp3
ccopy_reg
_reconstructor
p4
(c__main__
Ph4InteractionInformation
p5
c__builtin__
object
p6
Ntp7
Rp8
(dp9
S'lig_atom'
p10
(lp11
S'C:3298'
p12
aS'C:3299'
p13
aS'N:3300'
p14
aS'C:3301'
p15
aS'C:3302'
p16
asS'env_atom'
p17
(lp18
S'C:1890'
p19
aS'C:1891'
p20
aS'C:1892'
p21
aS'C:1893'
p22
aS'C:1894'
p23
aS'C:1895'
p24
asS'env_residue'
p25
S'PHE_138_A'
p26
sS'lig_residue'
p27
S'LIG_233_A'
p28
sS'interaction_type'
p29
g2
sbag4
(g5
g6
Ntp30
Rp31
(dp32
g10
(lp33
S'C:3298'
p34
aS'C:3299'
p35
aS'N:3300'
p36
aS'C:3301'
p37
aS'C:3302'
p38
asg17
(lp39
S'C:1458'
p40
aS'C:1459'
p41
aS'C:1460'
p42
asg25
S'LEU_107_A'
p43
sg27
S'LIG_233_A'
p44
sg29
S'H-H'
p45
sbag4
(g5
g6
Ntp46
Rp47
(dp48
g10
(lp49
S'C:3298'
p50
aS'C:3299'
p51
aS'N:3300'
p52
aS'C:3301'
p53
aS'C:3302'
p54
asg17
(lp55
S'S:1318'
p56
asg25
S'MET_98_A'
p57
sg27
S'LIG_233_A'
p58
sg29
S'H-H'
p59
sbag4
(g5
g6
Ntp60
Rp61
(dp62
g10
(lp63
S'C:3298'
p64
aS'C:3299'
p65
aS'N:3300'
p66
aS'C:3301'
p67
aS'C:3302'
p68
asg17
(lp69
S'C:1889'
p70
asg25
S'PHE_138_A'
p71
sg27
S'LIG_233_A'
p72
sg29
S'H-H'
p73
sbag4
(g5
g6
Ntp74
Rp75
(dp76
g10
(lp77
S'C:3314'
p78
aS'C:3315'
p79
aS'C:3316'
p80
aS'O:3317'
p81
aS'C:3318'
p82
asg17
(lp83
S'C:631'
p84
aS'C:634'
p85
asg25
S'ALA_55_A'
p86
sg27
S'LIG_233_A'
p87
sg29
S'H-H'
p88
sbag4
(g5
g6
Ntp89
Rp90
(dp91
g10
(lp92
S'C:3314'
p93
aS'C:3315'
p94
aS'C:3316'
p95
aS'O:3317'
p96
aS'C:3318'
p97
asg17
(lp98
S'C:1290'
p99
aS'C:1292'
p100
asg25
S'ILE_96_A'
p101
sg27
S'LIG_233_A'
p102
sg29
S'H-H'
p103
sbag4
(g5
g6
Ntp104
Rp105
(dp106
g10
(lp107
S'C:3314'
p108
aS'C:3315'
p109
aS'C:3316'
p110
aS'O:3317'
p111
aS'C:3318'
p112
asg17
(lp113
S'C:1458'
p114
aS'C:1459'
p115
aS'C:1460'
p116
asg25
S'LEU_107_A'
p117
sg27
S'LIG_233_A'
p118
sg29
S'H-H'
p119
sbag4
(g5
g6
Ntp120
Rp121
(dp122
g10
(lp123
S'C:3314'
p124
aS'C:3315'
p125
aS'C:3316'
p126
aS'O:3317'
p127
aS'C:3318'
p128
asg17
(lp129
S'C:676'
p130
asg25
S'LYS_58_A'
p131
sg27
S'LIG_233_A'
p132
sg29
S'H-H'
p133
sbag4
(g5
g6
Ntp134
Rp135
(dp136
g10
(lp137
S'C:3314'
p138
aS'C:3315'
p139
aS'C:3316'
p140
aS'O:3317'
p141
aS'C:3318'
p142
asg17
(lp143
S'C:675'
p144
asg25
S'LYS_58_A'
p145
sg27
S'LIG_233_A'
p146
sg29
S'H-H'
p147
sbag4
(g5
g6
Ntp148
Rp149
(dp150
g10
(lp151
S'C:3314'
p152
aS'C:3315'
p153
aS'C:3316'
p154
aS'O:3317'
p155
aS'C:3318'
p156
asg17
(lp157
S'S:1318'
p158
asg25
S'MET_98_A'
p159
sg27
S'LIG_233_A'
p160
sg29
S'H-H'
p161
sbag4
(g5
g6
Ntp162
Rp163
(dp164
g10
(lp165
S'C:3314'
p166
aS'C:3315'
p167
aS'C:3316'
p168
aS'O:3317'
p169
aS'C:3318'
p170
asg17
(lp171
S'C:1317'
p172
asg25
S'MET_98_A'
p173
sg27
S'LIG_233_A'
p174
sg29
S'H-H'
p175
sbag4
(g5
g6
Ntp176
Rp177
(dp178
g10
(lp179
S'C:3314'
p180
aS'C:3315'
p181
aS'C:3316'
p182
aS'O:3317'
p183
aS'C:3318'
p184
asg17
(lp185
S'C:1316'
p186
asg25
S'MET_98_A'
p187
sg27
S'LIG_233_A'
p188
sg29
S'H-H'
p189
sbag4
(g5
g6
Ntp190
Rp191
(dp192
g10
(lp193
S'C:3310'
p194
aS'C:3311'
p195
aS'C:3312'
p196
aS'C:3319'
p197
aS'C:3323'
p198
aS'C:3325'
p199
asg17
(lp200
S'C:1890'
p201
aS'C:1891'
p202
aS'C:1892'
p203
aS'C:1893'
p204
aS'C:1894'
p205
aS'C:1895'
p206
asg25
S'PHE_138_A'
p207
sg27
S'LIG_233_A'
p208
sg29
S'H-H'
p209
sbag4
(g5
g6
Ntp210
Rp211
(dp212
g10
(lp213
S'C:3310'
p214
aS'C:3311'
p215
aS'C:3312'
p216
aS'C:3319'
p217
aS'C:3323'
p218
aS'C:3325'
p219
asg17
(lp220
S'C:1458'
p221
aS'C:1459'
p222
aS'C:1460'
p223
asg25
S'LEU_107_A'
p224
sg27
S'LIG_233_A'
p225
sg29
S'H-H'
p226
sbag4
(g5
g6
Ntp227
Rp228
(dp229
g10
(lp230
S'C:3310'
p231
aS'C:3311'
p232
aS'C:3312'
p233
aS'C:3319'
p234
aS'C:3323'
p235
aS'C:3325'
p236
asg17
(lp237
S'C:1319'
p238
asg25
S'MET_98_A'
p239
sg27
S'LIG_233_A'
p240
sg29
S'H-H'
p241
sbag4
(g5
g6
Ntp242
Rp243
(dp244
g10
(lp245
S'C:3310'
p246
aS'C:3311'
p247
aS'C:3312'
p248
aS'C:3319'
p249
aS'C:3323'
p250
aS'C:3325'
p251
asg17
(lp252
S'S:1318'
p253
asg25
S'MET_98_A'
p254
sg27
S'LIG_233_A'
p255
sg29
S'H-H'
p256
sbag4
(g5
g6
Ntp257
Rp258
(dp259
g10
(lp260
S'C:3310'
p261
aS'C:3311'
p262
aS'C:3312'
p263
aS'C:3319'
p264
aS'C:3323'
p265
aS'C:3325'
p266
asg17
(lp267
S'C:1317'
p268
asg25
S'MET_98_A'
p269
sg27
S'LIG_233_A'
p270
sg29
S'H-H'
p271
sbag4
(g5
g6
Ntp272
Rp273
(dp274
g10
(lp275
S'C:3310'
p276
aS'C:3311'
p277
aS'C:3312'
p278
aS'C:3319'
p279
aS'C:3323'
p280
aS'C:3325'
p281
asg17
(lp282
S'C:1889'
p283
asg25
S'PHE_138_A'
p284
sg27
S'LIG_233_A'
p285
sg29
S'H-H'
p286
sbag4
(g5
g6
Ntp287
Rp288
(dp289
g10
(lp290
S'C:3297'
p291
asg17
(lp292
S'C:1910'
p293
aS'C:1911'
p294
aS'C:1912'
p295
aS'C:1913'
p296
aS'C:1914'
p297
aS'C:1915'
p298
asg25
S'TYR_139_A'
p299
sg27
S'LIG_233_A'
p300
sg29
S'H-H'
p301
sbag4
(g5
g6
Ntp302
Rp303
(dp304
g10
(lp305
S'C:3297'
p306
asg17
(lp307
S'C:1458'
p308
aS'C:1459'
p309
aS'C:1460'
p310
asg25
S'LEU_107_A'
p311
sg27
S'LIG_233_A'
p312
sg29
S'H-H'
p313
sbag4
(g5
g6
Ntp314
Rp315
(dp316
g10
(lp317
S'C:3297'
p318
asg17
(lp319
S'C:1513'
p320
aS'C:1516'
p321
asg25
S'ALA_111_A'
p322
sg27
S'LIG_233_A'
p323
sg29
S'H-H'
p324
sbag4
(g5
g6
Ntp325
Rp326
(dp327
g10
(lp328
S'C:3297'
p329
asg17
(lp330
S'C:1866'
p331
aS'C:1867'
p332
aS'C:1868'
p333
asg25
S'VAL_136_A'
p334
sg27
S'LIG_233_A'
p335
sg29
S'H-H'
p336
sbag4
(g5
g6
Ntp337
Rp338
(dp339
g10
(lp340
S'C:3297'
p341
asg17
(lp342
S'C:1889'
p343
asg25
S'PHE_138_A'
p344
sg27
S'LIG_233_A'
p345
sg29
S'H-H'
p346
sbag4
(g5
g6
Ntp347
Rp348
(dp349
g10
(lp350
S'C:3307'
p351
asg17
(lp352
S'C:2274'
p353
aS'C:2275'
p354
aS'C:2276'
p355
aS'N:2277'
p356
aS'C:2278'
p357
asg25
S'TRP_162_A'
p358
sg27
S'LIG_233_A'
p359
sg29
S'H-H'
p360
sbag4
(g5
g6
Ntp361
Rp362
(dp363
g10
(lp364
S'C:3307'
p365
asg17
(lp366
S'C:2276'
p367
aS'C:2278'
p368
aS'C:2279'
p369
aS'C:2280'
p370
aS'C:2281'
p371
aS'C:2282'
p372
asg25
S'TRP_162_A'
p373
sg27
S'LIG_233_A'
p374
sg29
S'H-H'
p375
sbag4
(g5
g6
Ntp376
Rp377
(dp378
g10
(lp379
S'C:3307'
p380
asg17
(lp381
S'C:1392'
p382
aS'C:1393'
p383
aS'C:1394'
p384
asg25
S'LEU_103_A'
p385
sg27
S'LIG_233_A'
p386
sg29
S'H-H'
p387
sbag4
(g5
g6
Ntp388
Rp389
(dp390
g10
(lp391
S'C:3307'
p392
asg17
(lp393
S'C:1458'
p394
aS'C:1459'
p395
aS'C:1460'
p396
asg25
S'LEU_107_A'
p397
sg27
S'LIG_233_A'
p398
sg29
S'H-H'
p399
sbag4
(g5
g6
Ntp400
Rp401
(dp402
g10
(lp403
S'C:3307'
p404
asg17
(lp405
S'C:1319'
p406
asg25
S'MET_98_A'
p407
sg27
S'LIG_233_A'
p408
sg29
S'H-H'
p409
sbag4
(g5
g6
Ntp410
Rp411
(dp412
g10
(lp413
S'C:3307'
p414
asg17
(lp415
S'S:1318'
p416
asg25
S'MET_98_A'
p417
sg27
S'LIG_233_A'
p418
sg29
S'H-H'
p419
sbag4
(g5
g6
Ntp420
Rp421
(dp422
g10
(lp423
S'C:3307'
p424
asg17
(lp425
S'C:1317'
p426
asg25
S'MET_98_A'
p427
sg27
S'LIG_233_A'
p428
sg29
S'H-H'
p429
sbag4
(g5
g6
Ntp430
Rp431
(dp432
g10
(lp433
S'C:3307'
p434
asg17
(lp435
S'C:1316'
p436
asg25
S'MET_98_A'
p437
sg27
S'LIG_233_A'
p438
sg29
S'H-H'
p439
sbag4
(g5
g6
Ntp440
Rp441
(dp442
g10
(lp443
S'C:3307'
p444
asg17
(lp445
S'C:1391'
p446
asg25
S'LEU_103_A'
p447
sg27
S'LIG_233_A'
p448
sg29
S'H-H'
p449
sbag4
(g5
g6
Ntp450
Rp451
(dp452
g10
(lp453
S'C:3308'
p454
asg17
(lp455
S'C:2274'
p456
aS'C:2275'
p457
aS'C:2276'
p458
aS'N:2277'
p459
aS'C:2278'
p460
asg25
S'TRP_162_A'
p461
sg27
S'LIG_233_A'
p462
sg29
S'H-H'
p463
sbag4
(g5
g6
Ntp464
Rp465
(dp466
g10
(lp467
S'C:3308'
p468
asg17
(lp469
S'C:1890'
p470
aS'C:1891'
p471
aS'C:1892'
p472
aS'C:1893'
p473
aS'C:1894'
p474
aS'C:1895'
p475
asg25
S'PHE_138_A'
p476
sg27
S'LIG_233_A'
p477
sg29
S'H-H'
p478
sbag4
(g5
g6
Ntp479
Rp480
(dp481
g10
(lp482
S'C:3308'
p483
asg17
(lp484
S'C:2276'
p485
aS'C:2278'
p486
aS'C:2279'
p487
aS'C:2280'
p488
aS'C:2281'
p489
aS'C:2282'
p490
asg25
S'TRP_162_A'
p491
sg27
S'LIG_233_A'
p492
sg29
S'H-H'
p493
sbag4
(g5
g6
Ntp494
Rp495
(dp496
g10
(lp497
S'C:3308'
p498
asg17
(lp499
S'C:1392'
p500
aS'C:1393'
p501
aS'C:1394'
p502
asg25
S'LEU_103_A'
p503
sg27
S'LIG_233_A'
p504
sg29
S'H-H'
p505
sbag4
(g5
g6
Ntp506
Rp507
(dp508
g10
(lp509
S'C:3308'
p510
asg17
(lp511
S'C:2084'
p512
aS'C:2085'
p513
aS'C:2086'
p514
asg25
S'VAL_150_A'
p515
sg27
S'LIG_233_A'
p516
sg29
S'H-H'
p517
sbag4
(g5
g6
Ntp518
Rp519
(dp520
g10
(lp521
S'C:3308'
p522
asg17
(lp523
S'C:1319'
p524
asg25
S'MET_98_A'
p525
sg27
S'LIG_233_A'
p526
sg29
S'H-H'
p527
sbag4
(g5
g6
Ntp528
Rp529
(dp530
g10
(lp531
S'C:3308'
p532
asg17
(lp533
S'S:1318'
p534
asg25
S'MET_98_A'
p535
sg27
S'LIG_233_A'
p536
sg29
S'H-H'
p537
sbag4
(g5
g6
Ntp538
Rp539
(dp540
g10
(lp541
S'C:3308'
p542
asg17
(lp543
S'C:1391'
p544
asg25
S'LEU_103_A'
p545
sg27
S'LIG_233_A'
p546
sg29
S'H-H'
p547
sbag4
(g5
g6
Ntp548
Rp549
(dp550
g10
(lp551
S'F:3324'
p552
asg17
(lp553
S'C:1890'
p554
aS'C:1891'
p555
aS'C:1892'
p556
aS'C:1893'
p557
aS'C:1894'
p558
aS'C:1895'
p559
asg25
S'PHE_138_A'
p560
sg27
S'LIG_233_A'
p561
sg29
S'H-H'
p562
sbag4
(g5
g6
Ntp563
Rp564
(dp565
g10
(lp566
S'F:3324'
p567
asg17
(lp568
S'C:2084'
p569
aS'C:2085'
p570
aS'C:2086'
p571
asg25
S'VAL_150_A'
p572
sg27
S'LIG_233_A'
p573
sg29
S'H-H'
p574
sbag4
(g5
g6
Ntp575
Rp576
(dp577
g10
(lp578
S'F:3324'
p579
asg17
(lp580
S'C:2610'
p581
aS'C:2611'
p582
aS'C:2612'
p583
asg25
S'VAL_186_A'
p584
sg27
S'LIG_233_A'
p585
sg29
S'H-H'
p586
sbag4
(g5
g6
Ntp587
Rp588
(dp589
g10
(lp590
S'F:3324'
p591
asg17
(lp592
S'C:1319'
p593
asg25
S'MET_98_A'
p594
sg27
S'LIG_233_A'
p595
sg29
S'H-H'
p596
sbag4
(g5
g6
Ntp597
Rp598
(dp599
g10
(lp600
S'F:3324'
p601
asg17
(lp602
S'S:1318'
p603
asg25
S'MET_98_A'
p604
sg27
S'LIG_233_A'
p605
sg29
S'H-H'
p606
sbag4
(g5
g6
Ntp607
Rp608
(dp609
g10
(lp610
S'F:3324'
p611
asg17
(lp612
S'C:1889'
p613
asg25
S'PHE_138_A'
p614
sg27
S'LIG_233_A'
p615
sg29
S'H-H'
p616
sbasS'HBA-HBD'
p617
(lp618
g4
(g5
g6
Ntp619
Rp620
(dp621
g10
(lp622
S'O:3322'
p623
asg17
(lp624
S'O:601'
p625
asg25
S'SER_52_A'
p626
sg27
S'LIG_233_A'
p627
sg29
g617
sbag4
(g5
g6
Ntp628
Rp629
(dp630
g10
(lp631
S'O:3304'
p632
asg17
(lp633
S'O:1916'
p634
asg25
S'TYR_139_A'
p635
sg27
S'LIG_233_A'
p636
sg29
S'HBA-HBD'
p637
sbass.