(dp0
I0
(dp1
S'H-H'
p2
(lp3
ccopy_reg
_reconstructor
p4
(c__main__
Ph4InteractionInformation
p5
c__builtin__
object
p6
Ntp7
Rp8
(dp9
S'lig_atom'
p10
(lp11
S'C:3295'
p12
aS'C:3299'
p13
aS'C:3300'
p14
asS'env_atom'
p15
(lp16
S'C:1890'
p17
aS'C:1891'
p18
aS'C:1892'
p19
aS'C:1893'
p20
aS'C:1894'
p21
aS'C:1895'
p22
asS'env_residue'
p23
S'PHE_138_A'
p24
sS'lig_residue'
p25
S'LIG_203_A'
p26
sS'interaction_type'
p27
g2
sbag4
(g5
g6
Ntp28
Rp29
(dp30
g10
(lp31
S'C:3295'
p32
aS'C:3299'
p33
aS'C:3300'
p34
asg15
(lp35
S'C:1319'
p36
asg23
S'MET_98_A'
p37
sg25
S'LIG_203_A'
p38
sg27
S'H-H'
p39
sbag4
(g5
g6
Ntp40
Rp41
(dp42
g10
(lp43
S'C:3295'
p44
aS'C:3299'
p45
aS'C:3300'
p46
asg15
(lp47
S'S:1318'
p48
asg23
S'MET_98_A'
p49
sg25
S'LIG_203_A'
p50
sg27
S'H-H'
p51
sbag4
(g5
g6
Ntp52
Rp53
(dp54
g10
(lp55
S'C:3295'
p56
aS'C:3299'
p57
aS'C:3300'
p58
asg15
(lp59
S'C:1317'
p60
asg23
S'MET_98_A'
p61
sg25
S'LIG_203_A'
p62
sg27
S'H-H'
p63
sbag4
(g5
g6
Ntp64
Rp65
(dp66
g10
(lp67
S'C:3295'
p68
aS'C:3299'
p69
aS'C:3300'
p70
asg15
(lp71
S'C:1889'
p72
asg23
S'PHE_138_A'
p73
sg25
S'LIG_203_A'
p74
sg27
S'H-H'
p75
sbag4
(g5
g6
Ntp76
Rp77
(dp78
g10
(lp79
S'C:3282'
p80
aS'C:3283'
p81
aS'C:3284'
p82
aS'C:3290'
p83
aS'N:3291'
p84
asg15
(lp85
S'C:1890'
p86
aS'C:1891'
p87
aS'C:1892'
p88
aS'C:1893'
p89
aS'C:1894'
p90
aS'C:1895'
p91
asg23
S'PHE_138_A'
p92
sg25
S'LIG_203_A'
p93
sg27
S'H-H'
p94
sbag4
(g5
g6
Ntp95
Rp96
(dp97
g10
(lp98
S'C:3282'
p99
aS'C:3283'
p100
aS'C:3284'
p101
aS'C:3290'
p102
aS'N:3291'
p103
asg15
(lp104
S'C:1458'
p105
aS'C:1459'
p106
aS'C:1460'
p107
asg23
S'LEU_107_A'
p108
sg25
S'LIG_203_A'
p109
sg27
S'H-H'
p110
sbag4
(g5
g6
Ntp111
Rp112
(dp113
g10
(lp114
S'C:3282'
p115
aS'C:3283'
p116
aS'C:3284'
p117
aS'C:3290'
p118
aS'N:3291'
p119
asg15
(lp120
S'C:1319'
p121
asg23
S'MET_98_A'
p122
sg25
S'LIG_203_A'
p123
sg27
S'H-H'
p124
sbag4
(g5
g6
Ntp125
Rp126
(dp127
g10
(lp128
S'C:3282'
p129
aS'C:3283'
p130
aS'C:3284'
p131
aS'C:3290'
p132
aS'N:3291'
p133
asg15
(lp134
S'S:1318'
p135
asg23
S'MET_98_A'
p136
sg25
S'LIG_203_A'
p137
sg27
S'H-H'
p138
sbag4
(g5
g6
Ntp139
Rp140
(dp141
g10
(lp142
S'C:3282'
p143
aS'C:3283'
p144
aS'C:3284'
p145
aS'C:3290'
p146
aS'N:3291'
p147
asg15
(lp148
S'C:1457'
p149
asg23
S'LEU_107_A'
p150
sg25
S'LIG_203_A'
p151
sg27
S'H-H'
p152
sbag4
(g5
g6
Ntp153
Rp154
(dp155
g10
(lp156
S'C:3282'
p157
aS'C:3283'
p158
aS'C:3284'
p159
aS'C:3290'
p160
aS'N:3291'
p161
asg15
(lp162
S'C:1889'
p163
asg23
S'PHE_138_A'
p164
sg25
S'LIG_203_A'
p165
sg27
S'H-H'
p166
sbag4
(g5
g6
Ntp167
Rp168
(dp169
g10
(lp170
S'C:3292'
p171
aS'C:3293'
p172
aS'C:3294'
p173
aS'C:3295'
p174
aS'C:3300'
p175
asg15
(lp176
S'C:631'
p177
aS'C:634'
p178
asg23
S'ALA_55_A'
p179
sg25
S'LIG_203_A'
p180
sg27
S'H-H'
p181
sbag4
(g5
g6
Ntp182
Rp183
(dp184
g10
(lp185
S'C:3292'
p186
aS'C:3293'
p187
aS'C:3294'
p188
aS'C:3295'
p189
aS'C:3300'
p190
asg15
(lp191
S'C:1458'
p192
aS'C:1459'
p193
aS'C:1460'
p194
asg23
S'LEU_107_A'
p195
sg25
S'LIG_203_A'
p196
sg27
S'H-H'
p197
sbag4
(g5
g6
Ntp198
Rp199
(dp200
g10
(lp201
S'C:3292'
p202
aS'C:3293'
p203
aS'C:3294'
p204
aS'C:3295'
p205
aS'C:3300'
p206
asg15
(lp207
S'C:1319'
p208
asg23
S'MET_98_A'
p209
sg25
S'LIG_203_A'
p210
sg27
S'H-H'
p211
sbag4
(g5
g6
Ntp212
Rp213
(dp214
g10
(lp215
S'C:3292'
p216
aS'C:3293'
p217
aS'C:3294'
p218
aS'C:3295'
p219
aS'C:3300'
p220
asg15
(lp221
S'S:1318'
p222
asg23
S'MET_98_A'
p223
sg25
S'LIG_203_A'
p224
sg27
S'H-H'
p225
sbag4
(g5
g6
Ntp226
Rp227
(dp228
g10
(lp229
S'C:3292'
p230
aS'C:3293'
p231
aS'C:3294'
p232
aS'C:3295'
p233
aS'C:3300'
p234
asg15
(lp235
S'C:1317'
p236
asg23
S'MET_98_A'
p237
sg25
S'LIG_203_A'
p238
sg27
S'H-H'
p239
sbag4
(g5
g6
Ntp240
Rp241
(dp242
g10
(lp243
S'C:3292'
p244
aS'C:3293'
p245
aS'C:3294'
p246
aS'C:3295'
p247
aS'C:3300'
p248
asg15
(lp249
S'C:1889'
p250
asg23
S'PHE_138_A'
p251
sg25
S'LIG_203_A'
p252
sg27
S'H-H'
p253
sbag4
(g5
g6
Ntp254
Rp255
(dp256
g10
(lp257
S'C:3280'
p258
asg15
(lp259
S'C:2274'
p260
aS'C:2275'
p261
aS'C:2276'
p262
aS'N:2277'
p263
aS'C:2278'
p264
asg23
S'TRP_162_A'
p265
sg25
S'LIG_203_A'
p266
sg27
S'H-H'
p267
sbag4
(g5
g6
Ntp268
Rp269
(dp270
g10
(lp271
S'C:3280'
p272
asg15
(lp273
S'C:1890'
p274
aS'C:1891'
p275
aS'C:1892'
p276
aS'C:1893'
p277
aS'C:1894'
p278
aS'C:1895'
p279
asg23
S'PHE_138_A'
p280
sg25
S'LIG_203_A'
p281
sg27
S'H-H'
p282
sbag4
(g5
g6
Ntp283
Rp284
(dp285
g10
(lp286
S'C:3280'
p287
asg15
(lp288
S'C:2276'
p289
aS'C:2278'
p290
aS'C:2279'
p291
aS'C:2280'
p292
aS'C:2281'
p293
aS'C:2282'
p294
asg23
S'TRP_162_A'
p295
sg25
S'LIG_203_A'
p296
sg27
S'H-H'
p297
sbag4
(g5
g6
Ntp298
Rp299
(dp300
g10
(lp301
S'C:3280'
p302
asg15
(lp303
S'C:1392'
p304
aS'C:1393'
p305
aS'C:1394'
p306
asg23
S'LEU_103_A'
p307
sg25
S'LIG_203_A'
p308
sg27
S'H-H'
p309
sbag4
(g5
g6
Ntp310
Rp311
(dp312
g10
(lp313
S'C:3280'
p314
asg15
(lp315
S'C:1458'
p316
aS'C:1459'
p317
aS'C:1460'
p318
asg23
S'LEU_107_A'
p319
sg25
S'LIG_203_A'
p320
sg27
S'H-H'
p321
sbag4
(g5
g6
Ntp322
Rp323
(dp324
g10
(lp325
S'C:3280'
p326
asg15
(lp327
S'C:1319'
p328
asg23
S'MET_98_A'
p329
sg25
S'LIG_203_A'
p330
sg27
S'H-H'
p331
sbag4
(g5
g6
Ntp332
Rp333
(dp334
g10
(lp335
S'C:3280'
p336
asg15
(lp337
S'S:1318'
p338
asg23
S'MET_98_A'
p339
sg25
S'LIG_203_A'
p340
sg27
S'H-H'
p341
sbag4
(g5
g6
Ntp342
Rp343
(dp344
g10
(lp345
S'C:3280'
p346
asg15
(lp347
S'C:1317'
p348
asg23
S'MET_98_A'
p349
sg25
S'LIG_203_A'
p350
sg27
S'H-H'
p351
sbag4
(g5
g6
Ntp352
Rp353
(dp354
g10
(lp355
S'C:3280'
p356
asg15
(lp357
S'C:1391'
p358
asg23
S'LEU_103_A'
p359
sg25
S'LIG_203_A'
p360
sg27
S'H-H'
p361
sbag4
(g5
g6
Ntp362
Rp363
(dp364
g10
(lp365
S'C:3280'
p366
asg15
(lp367
S'C:1457'
p368
asg23
S'LEU_107_A'
p369
sg25
S'LIG_203_A'
p370
sg27
S'H-H'
p371
sbasS'HBA-HBD'
p372
(lp373
g4
(g5
g6
Ntp374
Rp375
(dp376
g10
(lp377
S'O:3275'
p378
asg15
(lp379
S'O:1916'
p380
asg23
S'TYR_139_A'
p381
sg25
S'LIG_203_A'
p382
sg27
g372
sbag4
(g5
g6
Ntp383
Rp384
(dp385
g10
(lp386
S'O:3298'
p387
asg15
(lp388
S'O:2575'
p389
asg23
S'THR_184_A'
p390
sg25
S'LIG_203_A'
p391
sg27
S'HBA-HBD'
p392
sbass.