(dp0
I0
(dp1
S'H-H'
p2
(lp3
ccopy_reg
_reconstructor
p4
(c__main__
Ph4InteractionInformation
p5
c__builtin__
object
p6
Ntp7
Rp8
(dp9
S'lig_atom'
p10
(lp11
S'C:6540'
p12
aS'C:6541'
p13
aS'C:6542'
p14
asS'env_atom'
p15
(lp16
S'C:1878'
p17
aS'C:1879'
p18
aS'C:1880'
p19
aS'C:1881'
p20
aS'C:1882'
p21
aS'C:1883'
p22
asS'env_residue'
p23
S'PHE_138_A'
p24
sS'lig_residue'
p25
S'LIG_335_A'
p26
sS'interaction_type'
p27
g2
sbag4
(g5
g6
Ntp28
Rp29
(dp30
g10
(lp31
S'C:6540'
p32
aS'C:6541'
p33
aS'C:6542'
p34
asg15
(lp35
S'C:1453'
p36
aS'C:1454'
p37
aS'C:1455'
p38
asg23
S'LEU_107_A'
p39
sg25
S'LIG_335_A'
p40
sg27
S'H-H'
p41
sbag4
(g5
g6
Ntp42
Rp43
(dp44
g10
(lp45
S'C:6540'
p46
aS'C:6541'
p47
aS'C:6542'
p48
asg15
(lp49
S'C:1314'
p50
asg23
S'MET_98_A'
p51
sg25
S'LIG_335_A'
p52
sg27
S'H-H'
p53
sbag4
(g5
g6
Ntp54
Rp55
(dp56
g10
(lp57
S'C:6540'
p58
aS'C:6541'
p59
aS'C:6542'
p60
asg15
(lp61
S'S:1313'
p62
asg23
S'MET_98_A'
p63
sg25
S'LIG_335_A'
p64
sg27
S'H-H'
p65
sbag4
(g5
g6
Ntp66
Rp67
(dp68
g10
(lp69
S'C:6540'
p70
aS'C:6541'
p71
aS'C:6542'
p72
asg15
(lp73
S'C:1452'
p74
asg23
S'LEU_107_A'
p75
sg25
S'LIG_335_A'
p76
sg27
S'H-H'
p77
sbag4
(g5
g6
Ntp78
Rp79
(dp80
g10
(lp81
S'C:6540'
p82
aS'C:6541'
p83
aS'C:6542'
p84
asg15
(lp85
S'C:1877'
p86
asg23
S'PHE_138_A'
p87
sg25
S'LIG_335_A'
p88
sg27
S'H-H'
p89
sbag4
(g5
g6
Ntp90
Rp91
(dp92
g10
(lp93
S'C:6544'
p94
aS'C:6545'
p95
aS'C:6546'
p96
asg15
(lp97
S'C:1878'
p98
aS'C:1879'
p99
aS'C:1880'
p100
aS'C:1881'
p101
aS'C:1882'
p102
aS'C:1883'
p103
asg23
S'PHE_138_A'
p104
sg25
S'LIG_335_A'
p105
sg27
S'H-H'
p106
sbag4
(g5
g6
Ntp107
Rp108
(dp109
g10
(lp110
S'C:6544'
p111
aS'C:6545'
p112
aS'C:6546'
p113
asg15
(lp114
S'C:1898'
p115
aS'C:1899'
p116
aS'C:1900'
p117
aS'C:1901'
p118
aS'C:1902'
p119
aS'C:1903'
p120
asg23
S'TYR_139_A'
p121
sg25
S'LIG_335_A'
p122
sg27
S'H-H'
p123
sbag4
(g5
g6
Ntp124
Rp125
(dp126
g10
(lp127
S'C:6544'
p128
aS'C:6545'
p129
aS'C:6546'
p130
asg15
(lp131
S'C:1453'
p132
aS'C:1454'
p133
aS'C:1455'
p134
asg23
S'LEU_107_A'
p135
sg25
S'LIG_335_A'
p136
sg27
S'H-H'
p137
sbag4
(g5
g6
Ntp138
Rp139
(dp140
g10
(lp141
S'C:6544'
p142
aS'C:6545'
p143
aS'C:6546'
p144
asg15
(lp145
S'C:1492'
p146
aS'C:1494'
p147
asg23
S'ILE_110_A'
p148
sg25
S'LIG_335_A'
p149
sg27
S'H-H'
p150
sbag4
(g5
g6
Ntp151
Rp152
(dp153
g10
(lp154
S'C:6544'
p155
aS'C:6545'
p156
aS'C:6546'
p157
asg15
(lp158
S'C:1508'
p159
aS'C:1511'
p160
asg23
S'ALA_111_A'
p161
sg25
S'LIG_335_A'
p162
sg27
S'H-H'
p163
sbag4
(g5
g6
Ntp164
Rp165
(dp166
g10
(lp167
S'C:6544'
p168
aS'C:6545'
p169
aS'C:6546'
p170
asg15
(lp171
S'C:1854'
p172
aS'C:1855'
p173
aS'C:1856'
p174
asg23
S'VAL_136_A'
p175
sg25
S'LIG_335_A'
p176
sg27
S'H-H'
p177
sbag4
(g5
g6
Ntp178
Rp179
(dp180
g10
(lp181
S'C:6544'
p182
aS'C:6545'
p183
aS'C:6546'
p184
asg15
(lp185
S'C:1452'
p186
asg23
S'LEU_107_A'
p187
sg25
S'LIG_335_A'
p188
sg27
S'H-H'
p189
sbag4
(g5
g6
Ntp190
Rp191
(dp192
g10
(lp193
S'C:6544'
p194
aS'C:6545'
p195
aS'C:6546'
p196
asg15
(lp197
S'C:1877'
p198
asg23
S'PHE_138_A'
p199
sg25
S'LIG_335_A'
p200
sg27
S'H-H'
p201
sbag4
(g5
g6
Ntp202
Rp203
(dp204
g10
(lp205
S'C:6531'
p206
aS'C:6532'
p207
aS'N:6534'
p208
aS'C:6535'
p209
aS'N:6537'
p210
aS'C:6538'
p211
asg15
(lp212
S'C:626'
p213
aS'C:629'
p214
asg23
S'ALA_55_A'
p215
sg25
S'LIG_335_A'
p216
sg27
S'H-H'
p217
sbag4
(g5
g6
Ntp218
Rp219
(dp220
g10
(lp221
S'C:6531'
p222
aS'C:6532'
p223
aS'N:6534'
p224
aS'C:6535'
p225
aS'N:6537'
p226
aS'C:6538'
p227
asg15
(lp228
S'C:1314'
p229
asg23
S'MET_98_A'
p230
sg25
S'LIG_335_A'
p231
sg27
S'H-H'
p232
sbag4
(g5
g6
Ntp233
Rp234
(dp235
g10
(lp236
S'C:6531'
p237
aS'C:6532'
p238
aS'N:6534'
p239
aS'C:6535'
p240
aS'N:6537'
p241
aS'C:6538'
p242
asg15
(lp243
S'S:1313'
p244
asg23
S'MET_98_A'
p245
sg25
S'LIG_335_A'
p246
sg27
S'H-H'
p247
sbag4
(g5
g6
Ntp248
Rp249
(dp250
g10
(lp251
S'C:6531'
p252
aS'C:6532'
p253
aS'N:6534'
p254
aS'C:6535'
p255
aS'N:6537'
p256
aS'C:6538'
p257
asg15
(lp258
S'C:1312'
p259
asg23
S'MET_98_A'
p260
sg25
S'LIG_335_A'
p261
sg27
S'H-H'
p262
sbag4
(g5
g6
Ntp263
Rp264
(dp265
g10
(lp266
S'C:6531'
p267
aS'C:6532'
p268
aS'N:6534'
p269
aS'C:6535'
p270
aS'N:6537'
p271
aS'C:6538'
p272
asg15
(lp273
S'C:1311'
p274
asg23
S'MET_98_A'
p275
sg25
S'LIG_335_A'
p276
sg27
S'H-H'
p277
sbag4
(g5
g6
Ntp278
Rp279
(dp280
g10
(lp281
S'C:6541'
p282
aS'C:6542'
p283
aS'C:6543'
p284
aS'C:6544'
p285
aS'C:6546'
p286
aS'C:6547'
p287
asg15
(lp288
S'C:1878'
p289
aS'C:1879'
p290
aS'C:1880'
p291
aS'C:1881'
p292
aS'C:1882'
p293
aS'C:1883'
p294
asg23
S'PHE_138_A'
p295
sg25
S'LIG_335_A'
p296
sg27
S'H-H'
p297
sbag4
(g5
g6
Ntp298
Rp299
(dp300
g10
(lp301
S'C:6541'
p302
aS'C:6542'
p303
aS'C:6543'
p304
aS'C:6544'
p305
aS'C:6546'
p306
aS'C:6547'
p307
asg15
(lp308
S'C:1898'
p309
aS'C:1899'
p310
aS'C:1900'
p311
aS'C:1901'
p312
aS'C:1902'
p313
aS'C:1903'
p314
asg23
S'TYR_139_A'
p315
sg25
S'LIG_335_A'
p316
sg27
S'H-H'
p317
sbag4
(g5
g6
Ntp318
Rp319
(dp320
g10
(lp321
S'C:6541'
p322
aS'C:6542'
p323
aS'C:6543'
p324
aS'C:6544'
p325
aS'C:6546'
p326
aS'C:6547'
p327
asg15
(lp328
S'C:1453'
p329
aS'C:1454'
p330
aS'C:1455'
p331
asg23
S'LEU_107_A'
p332
sg25
S'LIG_335_A'
p333
sg27
S'H-H'
p334
sbag4
(g5
g6
Ntp335
Rp336
(dp337
g10
(lp338
S'C:6541'
p339
aS'C:6542'
p340
aS'C:6543'
p341
aS'C:6544'
p342
aS'C:6546'
p343
aS'C:6547'
p344
asg15
(lp345
S'S:1313'
p346
asg23
S'MET_98_A'
p347
sg25
S'LIG_335_A'
p348
sg27
S'H-H'
p349
sbag4
(g5
g6
Ntp350
Rp351
(dp352
g10
(lp353
S'C:6541'
p354
aS'C:6542'
p355
aS'C:6543'
p356
aS'C:6544'
p357
aS'C:6546'
p358
aS'C:6547'
p359
asg15
(lp360
S'C:1452'
p361
asg23
S'LEU_107_A'
p362
sg25
S'LIG_335_A'
p363
sg27
S'H-H'
p364
sbag4
(g5
g6
Ntp365
Rp366
(dp367
g10
(lp368
S'C:6541'
p369
aS'C:6542'
p370
aS'C:6543'
p371
aS'C:6544'
p372
aS'C:6546'
p373
aS'C:6547'
p374
asg15
(lp375
S'C:1877'
p376
asg23
S'PHE_138_A'
p377
sg25
S'LIG_335_A'
p378
sg27
S'H-H'
p379
sbag4
(g5
g6
Ntp380
Rp381
(dp382
g10
(lp383
S'Cl:6533'
p384
asg15
(lp385
S'C:626'
p386
aS'C:629'
p387
asg23
S'ALA_55_A'
p388
sg25
S'LIG_335_A'
p389
sg27
S'H-H'
p390
sbag4
(g5
g6
Ntp391
Rp392
(dp393
g10
(lp394
S'Cl:6533'
p395
asg15
(lp396
S'C:1285'
p397
aS'C:1287'
p398
asg23
S'ILE_96_A'
p399
sg25
S'LIG_335_A'
p400
sg27
S'H-H'
p401
sbag4
(g5
g6
Ntp402
Rp403
(dp404
g10
(lp405
S'Cl:6533'
p406
asg15
(lp407
S'C:1286'
p408
asg23
S'ILE_96_A'
p409
sg25
S'LIG_335_A'
p410
sg27
S'H-H'
p411
sbag4
(g5
g6
Ntp412
Rp413
(dp414
g10
(lp415
S'Cl:6533'
p416
asg15
(lp417
S'C:1314'
p418
asg23
S'MET_98_A'
p419
sg25
S'LIG_335_A'
p420
sg27
S'H-H'
p421
sbag4
(g5
g6
Ntp422
Rp423
(dp424
g10
(lp425
S'Cl:6533'
p426
asg15
(lp427
S'S:1313'
p428
asg23
S'MET_98_A'
p429
sg25
S'LIG_335_A'
p430
sg27
S'H-H'
p431
sbag4
(g5
g6
Ntp432
Rp433
(dp434
g10
(lp435
S'Cl:6533'
p436
asg15
(lp437
S'C:1312'
p438
asg23
S'MET_98_A'
p439
sg25
S'LIG_335_A'
p440
sg27
S'H-H'
p441
sbag4
(g5
g6
Ntp442
Rp443
(dp444
g10
(lp445
S'Cl:6533'
p446
asg15
(lp447
S'C:1311'
p448
asg23
S'MET_98_A'
p449
sg25
S'LIG_335_A'
p450
sg27
S'H-H'
p451
sbasS'HBD-HBA'
p452
(lp453
g4
(g5
g6
Ntp454
Rp455
(dp456
g10
(lp457
S'N:6536'
p458
aS'H:6548'
p459
asg15
(lp460
S'O:1255'
p461
asg23
S'ASP_93_A'
p462
sg25
S'LIG_335_A'
p463
sg27
g452
sbasS'HBA-HBD'
p464
(lp465
g4
(g5
g6
Ntp466
Rp467
(dp468
g10
(lp469
S'N:6534'
p470
asg15
(lp471
S'O:2563'
p472
asg23
S'THR_184_A'
p473
sg25
S'LIG_335_A'
p474
sg27
g464
sbass.