(dp0
I0
(dp1
S'H-H'
p2
(lp3
ccopy_reg
_reconstructor
p4
(c__main__
Ph4InteractionInformation
p5
c__builtin__
object
p6
Ntp7
Rp8
(dp9
S'lig_atom'
p10
(lp11
S'C:5461'
p12
aS'C:5475'
p13
aS'C:5476'
p14
aS'N:5477'
p15
aS'C:5478'
p16
asS'env_atom'
p17
(lp18
S'C:323'
p19
aS'C:324'
p20
aS'C:325'
p21
asS'env_residue'
p22
S'VAL_164_A'
p23
sS'lig_residue'
p24
S'CQU_999_A'
p25
sS'interaction_type'
p26
g2
sbag4
(g5
g6
Ntp27
Rp28
(dp29
g10
(lp30
S'C:5461'
p31
aS'C:5475'
p32
aS'C:5476'
p33
aS'N:5477'
p34
aS'C:5478'
p35
asg17
(lp36
S'C:546'
p37
aS'C:549'
p38
asg22
S'ALA_177_A'
p39
sg24
S'CQU_999_A'
p40
sg26
S'H-H'
p41
sbag4
(g5
g6
Ntp42
Rp43
(dp44
g10
(lp45
S'C:5461'
p46
aS'C:5475'
p47
aS'C:5476'
p48
aS'N:5477'
p49
aS'C:5478'
p50
asg17
(lp51
S'C:1476'
p52
aS'C:1479'
p53
asg22
S'ALA_230_A'
p54
sg24
S'CQU_999_A'
p55
sg26
S'H-H'
p56
sbag4
(g5
g6
Ntp57
Rp58
(dp59
g10
(lp60
S'C:5461'
p61
aS'C:5475'
p62
aS'C:5476'
p63
aS'N:5477'
p64
aS'C:5478'
p65
asg17
(lp66
S'C:1429'
p67
asg22
S'MET_227_A'
p68
sg24
S'CQU_999_A'
p69
sg26
S'H-H'
p70
sbag4
(g5
g6
Ntp71
Rp72
(dp73
g10
(lp74
S'C:5461'
p75
aS'C:5475'
p76
aS'C:5476'
p77
aS'N:5477'
p78
aS'C:5478'
p79
asg17
(lp80
S'S:1428'
p81
asg22
S'MET_227_A'
p82
sg24
S'CQU_999_A'
p83
sg26
S'H-H'
p84
sbag4
(g5
g6
Ntp85
Rp86
(dp87
g10
(lp88
S'C:5461'
p89
aS'C:5475'
p90
aS'C:5476'
p91
aS'N:5477'
p92
aS'C:5478'
p93
asg17
(lp94
S'C:1427'
p95
asg22
S'MET_227_A'
p96
sg24
S'CQU_999_A'
p97
sg26
S'H-H'
p98
sbag4
(g5
g6
Ntp99
Rp100
(dp101
g10
(lp102
S'C:5461'
p103
aS'C:5475'
p104
aS'C:5476'
p105
aS'N:5477'
p106
aS'C:5478'
p107
asg17
(lp108
S'C:1426'
p109
asg22
S'MET_227_A'
p110
sg24
S'CQU_999_A'
p111
sg26
S'H-H'
p112
sbag4
(g5
g6
Ntp113
Rp114
(dp115
g10
(lp116
S'C:5461'
p117
aS'C:5475'
p118
aS'C:5476'
p119
aS'N:5477'
p120
aS'C:5478'
p121
asg17
(lp122
S'C:2330'
p123
asg22
S'MET_281_A'
p124
sg24
S'CQU_999_A'
p125
sg26
S'H-H'
p126
sbag4
(g5
g6
Ntp127
Rp128
(dp129
g10
(lp130
S'C:5461'
p131
aS'C:5475'
p132
aS'C:5476'
p133
aS'N:5477'
p134
aS'C:5478'
p135
asg17
(lp136
S'S:2329'
p137
asg22
S'MET_281_A'
p138
sg24
S'CQU_999_A'
p139
sg26
S'H-H'
p140
sbag4
(g5
g6
Ntp141
Rp142
(dp143
g10
(lp144
S'C:5461'
p145
aS'C:5475'
p146
aS'C:5476'
p147
aS'N:5477'
p148
aS'C:5478'
p149
asg17
(lp150
S'C:2328'
p151
asg22
S'MET_281_A'
p152
sg24
S'CQU_999_A'
p153
sg26
S'H-H'
p154
sbag4
(g5
g6
Ntp155
Rp156
(dp157
g10
(lp158
S'C:5461'
p159
aS'C:5475'
p160
aS'C:5476'
p161
aS'N:5477'
p162
aS'C:5478'
p163
asg17
(lp164
S'C:2327'
p165
asg22
S'MET_281_A'
p166
sg24
S'CQU_999_A'
p167
sg26
S'H-H'
p168
sbag4
(g5
g6
Ntp169
Rp170
(dp171
g10
(lp172
S'C:5463'
p173
aS'N:5468'
p174
aS'N:5469'
p175
aS'N:5470'
p176
aS'C:5471'
p177
asg17
(lp178
S'C:275'
p179
aS'C:276'
p180
aS'C:277'
p181
aS'C:278'
p182
aS'C:279'
p183
aS'C:280'
p184
asg22
S'PHE_161_A'
p185
sg24
S'CQU_999_A'
p186
sg26
S'H-H'
p187
sbag4
(g5
g6
Ntp188
Rp189
(dp190
g10
(lp191
S'C:5463'
p192
aS'N:5468'
p193
aS'N:5469'
p194
aS'N:5470'
p195
aS'C:5471'
p196
asg17
(lp197
S'C:323'
p198
aS'C:324'
p199
aS'C:325'
p200
asg22
S'VAL_164_A'
p201
sg24
S'CQU_999_A'
p202
sg26
S'H-H'
p203
sbag4
(g5
g6
Ntp204
Rp205
(dp206
g10
(lp207
S'C:5463'
p208
aS'N:5468'
p209
aS'N:5469'
p210
aS'N:5470'
p211
aS'C:5471'
p212
asg17
(lp213
S'C:274'
p214
asg22
S'PHE_161_A'
p215
sg24
S'CQU_999_A'
p216
sg26
S'H-H'
p217
sbag4
(g5
g6
Ntp218
Rp219
(dp220
g10
(lp221
S'C:5463'
p222
aS'N:5468'
p223
aS'N:5469'
p224
aS'N:5470'
p225
aS'C:5471'
p226
asg17
(lp227
S'C:578'
p228
asg22
S'LYS_179_A'
p229
sg24
S'CQU_999_A'
p230
sg26
S'H-H'
p231
sbag4
(g5
g6
Ntp232
Rp233
(dp234
g10
(lp235
S'C:5463'
p236
aS'N:5468'
p237
aS'N:5469'
p238
aS'N:5470'
p239
aS'C:5471'
p240
asg17
(lp241
S'C:2330'
p242
asg22
S'MET_281_A'
p243
sg24
S'CQU_999_A'
p244
sg26
S'H-H'
p245
sbag4
(g5
g6
Ntp246
Rp247
(dp248
g10
(lp249
S'C:5463'
p250
aS'N:5468'
p251
aS'N:5469'
p252
aS'N:5470'
p253
aS'C:5471'
p254
asg17
(lp255
S'S:2329'
p256
asg22
S'MET_281_A'
p257
sg24
S'CQU_999_A'
p258
sg26
S'H-H'
p259
sbag4
(g5
g6
Ntp260
Rp261
(dp262
g10
(lp263
S'C:5460'
p264
aS'C:5462'
p265
aS'C:5465'
p266
aS'C:5466'
p267
aS'C:5472'
p268
aS'C:5473'
p269
asg17
(lp270
S'C:275'
p271
aS'C:276'
p272
aS'C:277'
p273
aS'C:278'
p274
aS'C:279'
p275
aS'C:280'
p276
asg22
S'PHE_161_A'
p277
sg24
S'CQU_999_A'
p278
sg26
S'H-H'
p279
sbag4
(g5
g6
Ntp280
Rp281
(dp282
g10
(lp283
S'C:5460'
p284
aS'C:5462'
p285
aS'C:5465'
p286
aS'C:5466'
p287
aS'C:5472'
p288
aS'C:5473'
p289
asg17
(lp290
S'C:323'
p291
aS'C:324'
p292
aS'C:325'
p293
asg22
S'VAL_164_A'
p294
sg24
S'CQU_999_A'
p295
sg26
S'H-H'
p296
sbag4
(g5
g6
Ntp297
Rp298
(dp299
g10
(lp300
S'C:5460'
p301
aS'C:5462'
p302
aS'C:5465'
p303
aS'C:5466'
p304
aS'C:5472'
p305
aS'C:5473'
p306
asg17
(lp307
S'C:205'
p308
asg22
S'LEU_156_A'
p309
sg24
S'CQU_999_A'
p310
sg26
S'H-H'
p311
sbag4
(g5
g6
Ntp312
Rp313
(dp314
g10
(lp315
S'C:5460'
p316
aS'C:5462'
p317
aS'C:5465'
p318
aS'C:5466'
p319
aS'C:5472'
p320
aS'C:5473'
p321
asg17
(lp322
S'C:2330'
p323
asg22
S'MET_281_A'
p324
sg24
S'CQU_999_A'
p325
sg26
S'H-H'
p326
sbag4
(g5
g6
Ntp327
Rp328
(dp329
g10
(lp330
S'C:5460'
p331
aS'C:5462'
p332
aS'C:5465'
p333
aS'C:5466'
p334
aS'C:5472'
p335
aS'C:5473'
p336
asg17
(lp337
S'S:2329'
p338
asg22
S'MET_281_A'
p339
sg24
S'CQU_999_A'
p340
sg26
S'H-H'
p341
sbag4
(g5
g6
Ntp342
Rp343
(dp344
g10
(lp345
S'C:5460'
p346
aS'C:5462'
p347
aS'C:5465'
p348
aS'C:5466'
p349
aS'C:5472'
p350
aS'C:5473'
p351
asg17
(lp352
S'C:2328'
p353
asg22
S'MET_281_A'
p354
sg24
S'CQU_999_A'
p355
sg26
S'H-H'
p356
sbag4
(g5
g6
Ntp357
Rp358
(dp359
g10
(lp360
S'C:5464'
p361
aS'C:5474'
p362
aS'C:5475'
p363
aS'C:5476'
p364
aS'N:5479'
p365
aS'N:5480'
p366
asg17
(lp367
S'C:206'
p368
aS'C:207'
p369
aS'C:208'
p370
asg22
S'LEU_156_A'
p371
sg24
S'CQU_999_A'
p372
sg26
S'H-H'
p373
sbag4
(g5
g6
Ntp374
Rp375
(dp376
g10
(lp377
S'C:5464'
p378
aS'C:5474'
p379
aS'C:5475'
p380
aS'C:5476'
p381
aS'N:5479'
p382
aS'N:5480'
p383
asg17
(lp384
S'C:323'
p385
aS'C:324'
p386
aS'C:325'
p387
asg22
S'VAL_164_A'
p388
sg24
S'CQU_999_A'
p389
sg26
S'H-H'
p390
sbag4
(g5
g6
Ntp391
Rp392
(dp393
g10
(lp394
S'C:5464'
p395
aS'C:5474'
p396
aS'C:5475'
p397
aS'C:5476'
p398
aS'N:5479'
p399
aS'N:5480'
p400
asg17
(lp401
S'C:546'
p402
aS'C:549'
p403
asg22
S'ALA_177_A'
p404
sg24
S'CQU_999_A'
p405
sg26
S'H-H'
p406
sbag4
(g5
g6
Ntp407
Rp408
(dp409
g10
(lp410
S'C:5464'
p411
aS'C:5474'
p412
aS'C:5475'
p413
aS'C:5476'
p414
aS'N:5479'
p415
aS'N:5480'
p416
asg17
(lp417
S'C:1476'
p418
aS'C:1479'
p419
asg22
S'ALA_230_A'
p420
sg24
S'CQU_999_A'
p421
sg26
S'H-H'
p422
sbag4
(g5
g6
Ntp423
Rp424
(dp425
g10
(lp426
S'C:5464'
p427
aS'C:5474'
p428
aS'C:5475'
p429
aS'C:5476'
p430
aS'N:5479'
p431
aS'N:5480'
p432
asg17
(lp433
S'C:2330'
p434
asg22
S'MET_281_A'
p435
sg24
S'CQU_999_A'
p436
sg26
S'H-H'
p437
sbag4
(g5
g6
Ntp438
Rp439
(dp440
g10
(lp441
S'C:5464'
p442
aS'C:5474'
p443
aS'C:5475'
p444
aS'C:5476'
p445
aS'N:5479'
p446
aS'N:5480'
p447
asg17
(lp448
S'S:2329'
p449
asg22
S'MET_281_A'
p450
sg24
S'CQU_999_A'
p451
sg26
S'H-H'
p452
sbag4
(g5
g6
Ntp453
Rp454
(dp455
g10
(lp456
S'C:5464'
p457
aS'C:5474'
p458
aS'C:5475'
p459
aS'C:5476'
p460
aS'N:5479'
p461
aS'N:5480'
p462
asg17
(lp463
S'C:2328'
p464
asg22
S'MET_281_A'
p465
sg24
S'CQU_999_A'
p466
sg26
S'H-H'
p467
sbag4
(g5
g6
Ntp468
Rp469
(dp470
g10
(lp471
S'C:5464'
p472
aS'C:5474'
p473
aS'C:5475'
p474
aS'C:5476'
p475
aS'N:5479'
p476
aS'N:5480'
p477
asg17
(lp478
S'C:2327'
p479
asg22
S'MET_281_A'
p480
sg24
S'CQU_999_A'
p481
sg26
S'H-H'
p482
sbag4
(g5
g6
Ntp483
Rp484
(dp485
g10
(lp486
S'C:5467'
p487
asg17
(lp488
S'C:275'
p489
aS'C:276'
p490
aS'C:277'
p491
aS'C:278'
p492
aS'C:279'
p493
aS'C:280'
p494
asg22
S'PHE_161_A'
p495
sg24
S'CQU_999_A'
p496
sg26
S'H-H'
p497
sbag4
(g5
g6
Ntp498
Rp499
(dp500
g10
(lp501
S'C:5467'
p502
asg17
(lp503
S'C:274'
p504
asg22
S'PHE_161_A'
p505
sg24
S'CQU_999_A'
p506
sg26
S'H-H'
p507
sbag4
(g5
g6
Ntp508
Rp509
(dp510
g10
(lp511
S'C:5467'
p512
asg17
(lp513
S'C:2330'
p514
asg22
S'MET_281_A'
p515
sg24
S'CQU_999_A'
p516
sg26
S'H-H'
p517
sbasS'HBD-HBA'
p518
(lp519
g4
(g5
g6
Ntp520
Rp521
(dp522
g10
(lp523
S'N:5477'
p524
aS'H:5492'
p525
asg17
(lp526
S'O:1442'
p527
asg22
S'GLU_228_A'
p528
sg24
S'CQU_999_A'
p529
sg26
g518
sbasS'AR-AR'
p530
(lp531
g4
(g5
g6
Ntp532
Rp533
(dp534
g10
(lp535
S'C:5463'
p536
aS'N:5468'
p537
aS'N:5469'
p538
aS'N:5470'
p539
aS'C:5471'
p540
asg17
(lp541
S'C:275'
p542
aS'C:276'
p543
aS'C:277'
p544
aS'C:278'
p545
aS'C:279'
p546
aS'C:280'
p547
asg22
S'PHE_161_A'
p548
sg24
S'CQU_999_A'
p549
sg26
g530
sbasS'HBA-HBD'
p550
(lp551
g4
(g5
g6
Ntp552
Rp553
(dp554
g10
(lp555
S'N:5479'
p556
asg17
(lp557
S'N:1475'
p558
aS'H:1480'
p559
asg22
S'ALA_230_A'
p560
sg24
S'CQU_999_A'
p561
sg26
g550
sbass.