(dp0
I0
(dp1
S'H-H'
p2
(lp3
ccopy_reg
_reconstructor
p4
(c__main__
Ph4InteractionInformation
p5
c__builtin__
object
p6
Ntp7
Rp8
(dp9
S'lig_atom'
p10
(lp11
S'C:5497'
p12
aS'C:5499'
p13
aS'N:5501'
p14
aS'C:5504'
p15
aS'C:5505'
p16
asS'env_atom'
p17
(lp18
S'C:354'
p19
aS'C:355'
p20
aS'C:356'
p21
asS'env_residue'
p22
S'VAL_164_A'
p23
sS'lig_residue'
p24
S'CQW_999_A'
p25
sS'interaction_type'
p26
g2
sbag4
(g5
g6
Ntp27
Rp28
(dp29
g10
(lp30
S'C:5497'
p31
aS'C:5499'
p32
aS'N:5501'
p33
aS'C:5504'
p34
aS'C:5505'
p35
asg17
(lp36
S'C:577'
p37
aS'C:580'
p38
asg22
S'ALA_177_A'
p39
sg24
S'CQW_999_A'
p40
sg26
S'H-H'
p41
sbag4
(g5
g6
Ntp42
Rp43
(dp44
g10
(lp45
S'C:5497'
p46
aS'C:5499'
p47
aS'N:5501'
p48
aS'C:5504'
p49
aS'C:5505'
p50
asg17
(lp51
S'C:1523'
p52
aS'C:1526'
p53
asg22
S'ALA_230_A'
p54
sg24
S'CQW_999_A'
p55
sg26
S'H-H'
p56
sbag4
(g5
g6
Ntp57
Rp58
(dp59
g10
(lp60
S'C:5497'
p61
aS'C:5499'
p62
aS'N:5501'
p63
aS'C:5504'
p64
aS'C:5505'
p65
asg17
(lp66
S'C:1476'
p67
asg22
S'MET_227_A'
p68
sg24
S'CQW_999_A'
p69
sg26
S'H-H'
p70
sbag4
(g5
g6
Ntp71
Rp72
(dp73
g10
(lp74
S'C:5497'
p75
aS'C:5499'
p76
aS'N:5501'
p77
aS'C:5504'
p78
aS'C:5505'
p79
asg17
(lp80
S'S:1475'
p81
asg22
S'MET_227_A'
p82
sg24
S'CQW_999_A'
p83
sg26
S'H-H'
p84
sbag4
(g5
g6
Ntp85
Rp86
(dp87
g10
(lp88
S'C:5497'
p89
aS'C:5499'
p90
aS'N:5501'
p91
aS'C:5504'
p92
aS'C:5505'
p93
asg17
(lp94
S'C:1474'
p95
asg22
S'MET_227_A'
p96
sg24
S'CQW_999_A'
p97
sg26
S'H-H'
p98
sbag4
(g5
g6
Ntp99
Rp100
(dp101
g10
(lp102
S'C:5497'
p103
aS'C:5499'
p104
aS'N:5501'
p105
aS'C:5504'
p106
aS'C:5505'
p107
asg17
(lp108
S'C:1473'
p109
asg22
S'MET_227_A'
p110
sg24
S'CQW_999_A'
p111
sg26
S'H-H'
p112
sbag4
(g5
g6
Ntp113
Rp114
(dp115
g10
(lp116
S'C:5497'
p117
aS'C:5499'
p118
aS'N:5501'
p119
aS'C:5504'
p120
aS'C:5505'
p121
asg17
(lp122
S'C:2373'
p123
asg22
S'MET_281_A'
p124
sg24
S'CQW_999_A'
p125
sg26
S'H-H'
p126
sbag4
(g5
g6
Ntp127
Rp128
(dp129
g10
(lp130
S'C:5497'
p131
aS'C:5499'
p132
aS'N:5501'
p133
aS'C:5504'
p134
aS'C:5505'
p135
asg17
(lp136
S'S:2372'
p137
asg22
S'MET_281_A'
p138
sg24
S'CQW_999_A'
p139
sg26
S'H-H'
p140
sbag4
(g5
g6
Ntp141
Rp142
(dp143
g10
(lp144
S'C:5500'
p145
aS'C:5511'
p146
aS'N:5512'
p147
aS'C:5513'
p148
aS'N:5514'
p149
asg17
(lp150
S'C:2373'
p151
asg22
S'MET_281_A'
p152
sg24
S'CQW_999_A'
p153
sg26
S'H-H'
p154
sbag4
(g5
g6
Ntp155
Rp156
(dp157
g10
(lp158
S'C:5500'
p159
aS'C:5511'
p160
aS'N:5512'
p161
aS'C:5513'
p162
aS'N:5514'
p163
asg17
(lp164
S'S:2372'
p165
asg22
S'MET_281_A'
p166
sg24
S'CQW_999_A'
p167
sg26
S'H-H'
p168
sbag4
(g5
g6
Ntp169
Rp170
(dp171
g10
(lp172
S'C:5500'
p173
aS'C:5511'
p174
aS'N:5512'
p175
aS'C:5513'
p176
aS'N:5514'
p177
asg17
(lp178
S'C:2371'
p179
asg22
S'MET_281_A'
p180
sg24
S'CQW_999_A'
p181
sg26
S'H-H'
p182
sbag4
(g5
g6
Ntp183
Rp184
(dp185
g10
(lp186
S'C:5497'
p187
aS'C:5498'
p188
aS'C:5499'
p189
aS'N:5506'
p190
aS'C:5507'
p191
aS'N:5508'
p192
asg17
(lp193
S'C:237'
p194
aS'C:238'
p195
aS'C:239'
p196
asg22
S'LEU_156_A'
p197
sg24
S'CQW_999_A'
p198
sg26
S'H-H'
p199
sbag4
(g5
g6
Ntp200
Rp201
(dp202
g10
(lp203
S'C:5497'
p204
aS'C:5498'
p205
aS'C:5499'
p206
aS'N:5506'
p207
aS'C:5507'
p208
aS'N:5508'
p209
asg17
(lp210
S'C:354'
p211
aS'C:355'
p212
aS'C:356'
p213
asg22
S'VAL_164_A'
p214
sg24
S'CQW_999_A'
p215
sg26
S'H-H'
p216
sbag4
(g5
g6
Ntp217
Rp218
(dp219
g10
(lp220
S'C:5497'
p221
aS'C:5498'
p222
aS'C:5499'
p223
aS'N:5506'
p224
aS'C:5507'
p225
aS'N:5508'
p226
asg17
(lp227
S'C:577'
p228
aS'C:580'
p229
asg22
S'ALA_177_A'
p230
sg24
S'CQW_999_A'
p231
sg26
S'H-H'
p232
sbag4
(g5
g6
Ntp233
Rp234
(dp235
g10
(lp236
S'C:5497'
p237
aS'C:5498'
p238
aS'C:5499'
p239
aS'N:5506'
p240
aS'C:5507'
p241
aS'N:5508'
p242
asg17
(lp243
S'C:1523'
p244
aS'C:1526'
p245
asg22
S'ALA_230_A'
p246
sg24
S'CQW_999_A'
p247
sg26
S'H-H'
p248
sbag4
(g5
g6
Ntp249
Rp250
(dp251
g10
(lp252
S'C:5497'
p253
aS'C:5498'
p254
aS'C:5499'
p255
aS'N:5506'
p256
aS'C:5507'
p257
aS'N:5508'
p258
asg17
(lp259
S'C:236'
p260
asg22
S'LEU_156_A'
p261
sg24
S'CQW_999_A'
p262
sg26
S'H-H'
p263
sbag4
(g5
g6
Ntp264
Rp265
(dp266
g10
(lp267
S'C:5497'
p268
aS'C:5498'
p269
aS'C:5499'
p270
aS'N:5506'
p271
aS'C:5507'
p272
aS'N:5508'
p273
asg17
(lp274
S'C:1476'
p275
asg22
S'MET_227_A'
p276
sg24
S'CQW_999_A'
p277
sg26
S'H-H'
p278
sbag4
(g5
g6
Ntp279
Rp280
(dp281
g10
(lp282
S'C:5497'
p283
aS'C:5498'
p284
aS'C:5499'
p285
aS'N:5506'
p286
aS'C:5507'
p287
aS'N:5508'
p288
asg17
(lp289
S'C:2373'
p290
asg22
S'MET_281_A'
p291
sg24
S'CQW_999_A'
p292
sg26
S'H-H'
p293
sbag4
(g5
g6
Ntp294
Rp295
(dp296
g10
(lp297
S'C:5497'
p298
aS'C:5498'
p299
aS'C:5499'
p300
aS'N:5506'
p301
aS'C:5507'
p302
aS'N:5508'
p303
asg17
(lp304
S'S:2372'
p305
asg22
S'MET_281_A'
p306
sg24
S'CQW_999_A'
p307
sg26
S'H-H'
p308
sbag4
(g5
g6
Ntp309
Rp310
(dp311
g10
(lp312
S'C:5497'
p313
aS'C:5498'
p314
aS'C:5499'
p315
aS'N:5506'
p316
aS'C:5507'
p317
aS'N:5508'
p318
asg17
(lp319
S'C:2371'
p320
asg22
S'MET_281_A'
p321
sg24
S'CQW_999_A'
p322
sg26
S'H-H'
p323
sbag4
(g5
g6
Ntp324
Rp325
(dp326
g10
(lp327
S'C:5497'
p328
aS'C:5498'
p329
aS'C:5499'
p330
aS'N:5506'
p331
aS'C:5507'
p332
aS'N:5508'
p333
asg17
(lp334
S'C:2370'
p335
asg22
S'MET_281_A'
p336
sg24
S'CQW_999_A'
p337
sg26
S'H-H'
p338
sbag4
(g5
g6
Ntp339
Rp340
(dp341
g10
(lp342
S'C:5500'
p343
aS'C:5502'
p344
aS'N:5509'
p345
aS'C:5510'
p346
aS'C:5511'
p347
aS'C:5515'
p348
asg17
(lp349
S'C:354'
p350
aS'C:355'
p351
aS'C:356'
p352
asg22
S'VAL_164_A'
p353
sg24
S'CQW_999_A'
p354
sg26
S'H-H'
p355
sbag4
(g5
g6
Ntp356
Rp357
(dp358
g10
(lp359
S'C:5500'
p360
aS'C:5502'
p361
aS'N:5509'
p362
aS'C:5510'
p363
aS'C:5511'
p364
aS'C:5515'
p365
asg17
(lp366
S'C:236'
p367
asg22
S'LEU_156_A'
p368
sg24
S'CQW_999_A'
p369
sg26
S'H-H'
p370
sbag4
(g5
g6
Ntp371
Rp372
(dp373
g10
(lp374
S'C:5500'
p375
aS'C:5502'
p376
aS'N:5509'
p377
aS'C:5510'
p378
aS'C:5511'
p379
aS'C:5515'
p380
asg17
(lp381
S'C:2373'
p382
asg22
S'MET_281_A'
p383
sg24
S'CQW_999_A'
p384
sg26
S'H-H'
p385
sbag4
(g5
g6
Ntp386
Rp387
(dp388
g10
(lp389
S'C:5500'
p390
aS'C:5502'
p391
aS'N:5509'
p392
aS'C:5510'
p393
aS'C:5511'
p394
aS'C:5515'
p395
asg17
(lp396
S'S:2372'
p397
asg22
S'MET_281_A'
p398
sg24
S'CQW_999_A'
p399
sg26
S'H-H'
p400
sbag4
(g5
g6
Ntp401
Rp402
(dp403
g10
(lp404
S'C:5500'
p405
aS'C:5502'
p406
aS'N:5509'
p407
aS'C:5510'
p408
aS'C:5511'
p409
aS'C:5515'
p410
asg17
(lp411
S'C:2371'
p412
asg22
S'MET_281_A'
p413
sg24
S'CQW_999_A'
p414
sg26
S'H-H'
p415
sbag4
(g5
g6
Ntp416
Rp417
(dp418
g10
(lp419
S'Cl:5503'
p420
asg17
(lp421
S'C:354'
p422
aS'C:355'
p423
aS'C:356'
p424
asg22
S'VAL_164_A'
p425
sg24
S'CQW_999_A'
p426
sg26
S'H-H'
p427
sbag4
(g5
g6
Ntp428
Rp429
(dp430
g10
(lp431
S'Cl:5503'
p432
asg17
(lp433
S'C:577'
p434
aS'C:580'
p435
asg22
S'ALA_177_A'
p436
sg24
S'CQW_999_A'
p437
sg26
S'H-H'
p438
sbag4
(g5
g6
Ntp439
Rp440
(dp441
g10
(lp442
S'Cl:5503'
p443
asg17
(lp444
S'C:608'
p445
asg22
S'LYS_179_A'
p446
sg24
S'CQW_999_A'
p447
sg26
S'H-H'
p448
sbag4
(g5
g6
Ntp449
Rp450
(dp451
g10
(lp452
S'Cl:5503'
p453
asg17
(lp454
S'C:607'
p455
asg22
S'LYS_179_A'
p456
sg24
S'CQW_999_A'
p457
sg26
S'H-H'
p458
sbag4
(g5
g6
Ntp459
Rp460
(dp461
g10
(lp462
S'Cl:5503'
p463
asg17
(lp464
S'C:1476'
p465
asg22
S'MET_227_A'
p466
sg24
S'CQW_999_A'
p467
sg26
S'H-H'
p468
sbag4
(g5
g6
Ntp469
Rp470
(dp471
g10
(lp472
S'Cl:5503'
p473
asg17
(lp474
S'S:1475'
p475
asg22
S'MET_227_A'
p476
sg24
S'CQW_999_A'
p477
sg26
S'H-H'
p478
sbag4
(g5
g6
Ntp479
Rp480
(dp481
g10
(lp482
S'Cl:5503'
p483
asg17
(lp484
S'C:1474'
p485
asg22
S'MET_227_A'
p486
sg24
S'CQW_999_A'
p487
sg26
S'H-H'
p488
sbag4
(g5
g6
Ntp489
Rp490
(dp491
g10
(lp492
S'Cl:5503'
p493
asg17
(lp494
S'C:1473'
p495
asg22
S'MET_227_A'
p496
sg24
S'CQW_999_A'
p497
sg26
S'H-H'
p498
sbag4
(g5
g6
Ntp499
Rp500
(dp501
g10
(lp502
S'Cl:5503'
p503
asg17
(lp504
S'S:2372'
p505
asg22
S'MET_281_A'
p506
sg24
S'CQW_999_A'
p507
sg26
S'H-H'
p508
sbasS'HBD-HBA'
p509
(lp510
g4
(g5
g6
Ntp511
Rp512
(dp513
g10
(lp514
S'N:5501'
p515
aS'H:5517'
p516
asg17
(lp517
S'O:1489'
p518
asg22
S'GLU_228_A'
p519
sg24
S'CQW_999_A'
p520
sg26
g509
sbag4
(g5
g6
Ntp521
Rp522
(dp523
g10
(lp524
S'N:5514'
p525
aS'H:5524'
p526
asg17
(lp527
S'O:1581'
p528
asg22
S'GLU_234_A'
p529
sg24
S'CQW_999_A'
p530
sg26
S'HBD-HBA'
p531
sbasS'HBA-HBD'
p532
(lp533
g4
(g5
g6
Ntp534
Rp535
(dp536
g10
(lp537
S'N:5506'
p538
asg17
(lp539
S'N:1522'
p540
aS'H:1527'
p541
asg22
S'ALA_230_A'
p542
sg24
S'CQW_999_A'
p543
sg26
g532
sbag4
(g5
g6
Ntp544
Rp545
(dp546
g10
(lp547
S'N:5512'
p548
asg17
(lp549
S'O:2559'
p550
asg22
S'THR_291_A'
p551
sg24
S'CQW_999_A'
p552
sg26
S'HBA-HBD'
p553
sbass.