(dp0
I0
(dp1
S'PI-NI'
p2
(lp3
ccopy_reg
_reconstructor
p4
(c__main__
Ph4InteractionInformation
p5
c__builtin__
object
p6
Ntp7
Rp8
(dp9
S'lig_atom'
p10
(lp11
S'N:5339'
p12
asS'env_atom'
p13
(lp14
S'C:1496'
p15
aS'O:1497'
p16
aS'O:1498'
p17
asS'env_residue'
p18
S'GLU_234_A'
p19
sS'lig_residue'
p20
S'XFE_999_A'
p21
sS'interaction_type'
p22
g2
sbag4
(g5
g6
Ntp23
Rp24
(dp25
g10
(lp26
S'N:5339'
p27
asg13
(lp28
S'C:2467'
p29
aS'O:2468'
p30
aS'O:2469'
p31
asg18
S'ASP_292_A'
p32
sg20
S'XFE_999_A'
p33
sg22
S'PI-NI'
p34
sbasS'H-H'
p35
(lp36
g4
(g5
g6
Ntp37
Rp38
(dp39
g10
(lp40
S'C:5324'
p41
aS'C:5325'
p42
aS'C:5326'
p43
aS'N:5327'
p44
aS'C:5328'
p45
asg13
(lp46
S'C:4817'
p47
aS'C:4818'
p48
aS'C:4819'
p49
aS'C:4820'
p50
aS'C:4821'
p51
aS'C:4822'
p52
asg18
S'PHE_438_A'
p53
sg20
S'XFE_999_A'
p54
sg22
g35
sbag4
(g5
g6
Ntp55
Rp56
(dp57
g10
(lp58
S'C:5324'
p59
aS'C:5325'
p60
aS'C:5326'
p61
aS'N:5327'
p62
aS'C:5328'
p63
asg13
(lp64
S'C:223'
p65
aS'C:224'
p66
aS'C:225'
p67
asg18
S'LEU_156_A'
p68
sg20
S'XFE_999_A'
p69
sg22
S'H-H'
p70
sbag4
(g5
g6
Ntp71
Rp72
(dp73
g10
(lp74
S'C:5324'
p75
aS'C:5325'
p76
aS'C:5326'
p77
aS'N:5327'
p78
aS'C:5328'
p79
asg13
(lp80
S'C:340'
p81
aS'C:341'
p82
aS'C:342'
p83
asg18
S'VAL_164_A'
p84
sg20
S'XFE_999_A'
p85
sg22
S'H-H'
p86
sbag4
(g5
g6
Ntp87
Rp88
(dp89
g10
(lp90
S'C:5324'
p91
aS'C:5325'
p92
aS'C:5326'
p93
aS'N:5327'
p94
aS'C:5328'
p95
asg13
(lp96
S'C:222'
p97
asg18
S'LEU_156_A'
p98
sg20
S'XFE_999_A'
p99
sg22
S'H-H'
p100
sbag4
(g5
g6
Ntp101
Rp102
(dp103
g10
(lp104
S'C:5324'
p105
aS'C:5325'
p106
aS'C:5326'
p107
aS'N:5327'
p108
aS'C:5328'
p109
asg13
(lp110
S'C:2289'
p111
asg18
S'MET_281_A'
p112
sg20
S'XFE_999_A'
p113
sg22
S'H-H'
p114
sbag4
(g5
g6
Ntp115
Rp116
(dp117
g10
(lp118
S'C:5324'
p119
aS'C:5325'
p120
aS'C:5326'
p121
aS'N:5327'
p122
aS'C:5328'
p123
asg13
(lp124
S'S:2288'
p125
asg18
S'MET_281_A'
p126
sg20
S'XFE_999_A'
p127
sg22
S'H-H'
p128
sbag4
(g5
g6
Ntp129
Rp130
(dp131
g10
(lp132
S'C:5324'
p133
aS'C:5325'
p134
aS'C:5326'
p135
aS'N:5327'
p136
aS'C:5328'
p137
asg13
(lp138
S'C:2287'
p139
asg18
S'MET_281_A'
p140
sg20
S'XFE_999_A'
p141
sg22
S'H-H'
p142
sbag4
(g5
g6
Ntp143
Rp144
(dp145
g10
(lp146
S'C:5333'
p147
aS'C:5334'
p148
aS'N:5335'
p149
aS'C:5336'
p150
aS'C:5337'
p151
asg13
(lp152
S'C:340'
p153
aS'C:341'
p154
aS'C:342'
p155
asg18
S'VAL_164_A'
p156
sg20
S'XFE_999_A'
p157
sg22
S'H-H'
p158
sbag4
(g5
g6
Ntp159
Rp160
(dp161
g10
(lp162
S'C:5333'
p163
aS'C:5334'
p164
aS'N:5335'
p165
aS'C:5336'
p166
aS'C:5337'
p167
asg13
(lp168
S'C:563'
p169
aS'C:566'
p170
asg18
S'ALA_177_A'
p171
sg20
S'XFE_999_A'
p172
sg22
S'H-H'
p173
sbag4
(g5
g6
Ntp174
Rp175
(dp176
g10
(lp177
S'C:5333'
p178
aS'C:5334'
p179
aS'N:5335'
p180
aS'C:5336'
p181
aS'C:5337'
p182
asg13
(lp183
S'C:1453'
p184
aS'C:1456'
p185
asg18
S'ALA_230_A'
p186
sg20
S'XFE_999_A'
p187
sg22
S'H-H'
p188
sbag4
(g5
g6
Ntp189
Rp190
(dp191
g10
(lp192
S'C:5333'
p193
aS'C:5334'
p194
aS'N:5335'
p195
aS'C:5336'
p196
aS'C:5337'
p197
asg13
(lp198
S'C:1406'
p199
asg18
S'MET_227_A'
p200
sg20
S'XFE_999_A'
p201
sg22
S'H-H'
p202
sbag4
(g5
g6
Ntp203
Rp204
(dp205
g10
(lp206
S'C:5333'
p207
aS'C:5334'
p208
aS'N:5335'
p209
aS'C:5336'
p210
aS'C:5337'
p211
asg13
(lp212
S'S:1405'
p213
asg18
S'MET_227_A'
p214
sg20
S'XFE_999_A'
p215
sg22
S'H-H'
p216
sbag4
(g5
g6
Ntp217
Rp218
(dp219
g10
(lp220
S'C:5333'
p221
aS'C:5334'
p222
aS'N:5335'
p223
aS'C:5336'
p224
aS'C:5337'
p225
asg13
(lp226
S'C:1404'
p227
asg18
S'MET_227_A'
p228
sg20
S'XFE_999_A'
p229
sg22
S'H-H'
p230
sbag4
(g5
g6
Ntp231
Rp232
(dp233
g10
(lp234
S'C:5333'
p235
aS'C:5334'
p236
aS'N:5335'
p237
aS'C:5336'
p238
aS'C:5337'
p239
asg13
(lp240
S'C:1403'
p241
asg18
S'MET_227_A'
p242
sg20
S'XFE_999_A'
p243
sg22
S'H-H'
p244
sbag4
(g5
g6
Ntp245
Rp246
(dp247
g10
(lp248
S'C:5333'
p249
aS'C:5334'
p250
aS'N:5335'
p251
aS'C:5336'
p252
aS'C:5337'
p253
asg13
(lp254
S'C:2289'
p255
asg18
S'MET_281_A'
p256
sg20
S'XFE_999_A'
p257
sg22
S'H-H'
p258
sbag4
(g5
g6
Ntp259
Rp260
(dp261
g10
(lp262
S'C:5333'
p263
aS'C:5334'
p264
aS'N:5335'
p265
aS'C:5336'
p266
aS'C:5337'
p267
asg13
(lp268
S'S:2288'
p269
asg18
S'MET_281_A'
p270
sg20
S'XFE_999_A'
p271
sg22
S'H-H'
p272
sbag4
(g5
g6
Ntp273
Rp274
(dp275
g10
(lp276
S'C:5333'
p277
aS'C:5334'
p278
aS'N:5335'
p279
aS'C:5336'
p280
aS'C:5337'
p281
asg13
(lp282
S'C:2287'
p283
asg18
S'MET_281_A'
p284
sg20
S'XFE_999_A'
p285
sg22
S'H-H'
p286
sbag4
(g5
g6
Ntp287
Rp288
(dp289
g10
(lp290
S'C:5329'
p291
aS'N:5330'
p292
aS'C:5331'
p293
aS'N:5332'
p294
aS'C:5333'
p295
aS'C:5334'
p296
asg13
(lp297
S'C:223'
p298
aS'C:224'
p299
aS'C:225'
p300
asg18
S'LEU_156_A'
p301
sg20
S'XFE_999_A'
p302
sg22
S'H-H'
p303
sbag4
(g5
g6
Ntp304
Rp305
(dp306
g10
(lp307
S'C:5329'
p308
aS'N:5330'
p309
aS'C:5331'
p310
aS'N:5332'
p311
aS'C:5333'
p312
aS'C:5334'
p313
asg13
(lp314
S'C:340'
p315
aS'C:341'
p316
aS'C:342'
p317
asg18
S'VAL_164_A'
p318
sg20
S'XFE_999_A'
p319
sg22
S'H-H'
p320
sbag4
(g5
g6
Ntp321
Rp322
(dp323
g10
(lp324
S'C:5329'
p325
aS'N:5330'
p326
aS'C:5331'
p327
aS'N:5332'
p328
aS'C:5333'
p329
aS'C:5334'
p330
asg13
(lp331
S'C:563'
p332
aS'C:566'
p333
asg18
S'ALA_177_A'
p334
sg20
S'XFE_999_A'
p335
sg22
S'H-H'
p336
sbag4
(g5
g6
Ntp337
Rp338
(dp339
g10
(lp340
S'C:5329'
p341
aS'N:5330'
p342
aS'C:5331'
p343
aS'N:5332'
p344
aS'C:5333'
p345
aS'C:5334'
p346
asg13
(lp347
S'C:1453'
p348
aS'C:1456'
p349
asg18
S'ALA_230_A'
p350
sg20
S'XFE_999_A'
p351
sg22
S'H-H'
p352
sbag4
(g5
g6
Ntp353
Rp354
(dp355
g10
(lp356
S'C:5329'
p357
aS'N:5330'
p358
aS'C:5331'
p359
aS'N:5332'
p360
aS'C:5333'
p361
aS'C:5334'
p362
asg13
(lp363
S'C:222'
p364
asg18
S'LEU_156_A'
p365
sg20
S'XFE_999_A'
p366
sg22
S'H-H'
p367
sbag4
(g5
g6
Ntp368
Rp369
(dp370
g10
(lp371
S'C:5329'
p372
aS'N:5330'
p373
aS'C:5331'
p374
aS'N:5332'
p375
aS'C:5333'
p376
aS'C:5334'
p377
asg13
(lp378
S'C:1406'
p379
asg18
S'MET_227_A'
p380
sg20
S'XFE_999_A'
p381
sg22
S'H-H'
p382
sbag4
(g5
g6
Ntp383
Rp384
(dp385
g10
(lp386
S'C:5329'
p387
aS'N:5330'
p388
aS'C:5331'
p389
aS'N:5332'
p390
aS'C:5333'
p391
aS'C:5334'
p392
asg13
(lp393
S'C:2289'
p394
asg18
S'MET_281_A'
p395
sg20
S'XFE_999_A'
p396
sg22
S'H-H'
p397
sbag4
(g5
g6
Ntp398
Rp399
(dp400
g10
(lp401
S'C:5329'
p402
aS'N:5330'
p403
aS'C:5331'
p404
aS'N:5332'
p405
aS'C:5333'
p406
aS'C:5334'
p407
asg13
(lp408
S'S:2288'
p409
asg18
S'MET_281_A'
p410
sg20
S'XFE_999_A'
p411
sg22
S'H-H'
p412
sbag4
(g5
g6
Ntp413
Rp414
(dp415
g10
(lp416
S'C:5329'
p417
aS'N:5330'
p418
aS'C:5331'
p419
aS'N:5332'
p420
aS'C:5333'
p421
aS'C:5334'
p422
asg13
(lp423
S'C:2287'
p424
asg18
S'MET_281_A'
p425
sg20
S'XFE_999_A'
p426
sg22
S'H-H'
p427
sbag4
(g5
g6
Ntp428
Rp429
(dp430
g10
(lp431
S'C:5329'
p432
aS'N:5330'
p433
aS'C:5331'
p434
aS'N:5332'
p435
aS'C:5333'
p436
aS'C:5334'
p437
asg13
(lp438
S'C:2286'
p439
asg18
S'MET_281_A'
p440
sg20
S'XFE_999_A'
p441
sg22
S'H-H'
p442
sbag4
(g5
g6
Ntp443
Rp444
(dp445
g10
(lp446
S'C:5338'
p447
asg13
(lp448
S'C:340'
p449
aS'C:341'
p450
aS'C:342'
p451
asg18
S'VAL_164_A'
p452
sg20
S'XFE_999_A'
p453
sg22
S'H-H'
p454
sbag4
(g5
g6
Ntp455
Rp456
(dp457
g10
(lp458
S'C:5338'
p459
asg13
(lp460
S'C:563'
p461
aS'C:566'
p462
asg18
S'ALA_177_A'
p463
sg20
S'XFE_999_A'
p464
sg22
S'H-H'
p465
sbag4
(g5
g6
Ntp466
Rp467
(dp468
g10
(lp469
S'C:5338'
p470
asg13
(lp471
S'C:594'
p472
asg18
S'LYS_179_A'
p473
sg20
S'XFE_999_A'
p474
sg22
S'H-H'
p475
sbag4
(g5
g6
Ntp476
Rp477
(dp478
g10
(lp479
S'C:5338'
p480
asg13
(lp481
S'C:593'
p482
asg18
S'LYS_179_A'
p483
sg20
S'XFE_999_A'
p484
sg22
S'H-H'
p485
sbag4
(g5
g6
Ntp486
Rp487
(dp488
g10
(lp489
S'C:5338'
p490
asg13
(lp491
S'C:1406'
p492
asg18
S'MET_227_A'
p493
sg20
S'XFE_999_A'
p494
sg22
S'H-H'
p495
sbag4
(g5
g6
Ntp496
Rp497
(dp498
g10
(lp499
S'C:5338'
p500
asg13
(lp501
S'S:1405'
p502
asg18
S'MET_227_A'
p503
sg20
S'XFE_999_A'
p504
sg22
S'H-H'
p505
sbag4
(g5
g6
Ntp506
Rp507
(dp508
g10
(lp509
S'C:5338'
p510
asg13
(lp511
S'C:1404'
p512
asg18
S'MET_227_A'
p513
sg20
S'XFE_999_A'
p514
sg22
S'H-H'
p515
sbag4
(g5
g6
Ntp516
Rp517
(dp518
g10
(lp519
S'C:5338'
p520
asg13
(lp521
S'C:1403'
p522
asg18
S'MET_227_A'
p523
sg20
S'XFE_999_A'
p524
sg22
S'H-H'
p525
sbag4
(g5
g6
Ntp526
Rp527
(dp528
g10
(lp529
S'C:5338'
p530
asg13
(lp531
S'S:2288'
p532
asg18
S'MET_281_A'
p533
sg20
S'XFE_999_A'
p534
sg22
S'H-H'
p535
sbasS'HBD-HBA'
p536
(lp537
g4
(g5
g6
Ntp538
Rp539
(dp540
g10
(lp541
S'N:5335'
p542
aS'H:5348'
p543
asg13
(lp544
S'O:1419'
p545
asg18
S'GLU_228_A'
p546
sg20
S'XFE_999_A'
p547
sg22
g536
sbag4
(g5
g6
Ntp548
Rp549
(dp550
g10
(lp551
S'N:5339'
p552
asg13
(lp553
S'S:2288'
p554
asg18
S'MET_281_A'
p555
sg20
S'XFE_999_A'
p556
sg22
S'HBD-HBA'
p557
sbag4
(g5
g6
Ntp558
Rp559
(dp560
g10
(lp561
S'N:5339'
p562
asg13
(lp563
S'O:1497'
p564
asg18
S'GLU_234_A'
p565
sg20
S'XFE_999_A'
p566
sg22
S'HBD-HBA'
p567
sbag4
(g5
g6
Ntp568
Rp569
(dp570
g10
(lp571
S'N:5339'
p572
asg13
(lp573
S'O:2237'
p574
asg18
S'GLU_278_A'
p575
sg20
S'XFE_999_A'
p576
sg22
S'HBD-HBA'
p577
sbasS'HBA-HBD'
p578
(lp579
g4
(g5
g6
Ntp580
Rp581
(dp582
g10
(lp583
S'N:5332'
p584
asg13
(lp585
S'N:1452'
p586
aS'H:1457'
p587
asg18
S'ALA_230_A'
p588
sg20
S'XFE_999_A'
p589
sg22
g578
sbass.