(dp0
I0
(dp1
S'PI-NI'
p2
(lp3
ccopy_reg
_reconstructor
p4
(c__main__
Ph4InteractionInformation
p5
c__builtin__
object
p6
Ntp7
Rp8
(dp9
S'lig_atom'
p10
(lp11
S'N:5358'
p12
asS'env_atom'
p13
(lp14
S'C:1502'
p15
aS'O:1503'
p16
aS'O:1504'
p17
asS'env_residue'
p18
S'GLU_234_A'
p19
sS'lig_residue'
p20
S'WFE_999_A'
p21
sS'interaction_type'
p22
g2
sbasS'AR-PI'
p23
(lp24
g4
(g5
g6
Ntp25
Rp26
(dp27
g10
(lp28
S'C:5363'
p29
aS'C:5364'
p30
aS'C:5365'
p31
aS'C:5366'
p32
aS'C:5368'
p33
aS'C:5369'
p34
asg13
(lp35
S'N:589'
p36
asg18
S'LYS_179_A'
p37
sg20
S'WFE_999_A'
p38
sg22
g23
sbasS'H-H'
p39
(lp40
g4
(g5
g6
Ntp41
Rp42
(dp43
g10
(lp44
S'C:5344'
p45
aS'C:5355'
p46
aS'C:5356'
p47
aS'H:5374'
p48
aS'H:5375'
p49
asg13
(lp50
S'C:320'
p51
aS'C:322'
p52
aS'C:324'
p53
asg18
S'VAL_164_A'
p54
sg20
S'WFE_999_A'
p55
sg22
g39
sbag4
(g5
g6
Ntp56
Rp57
(dp58
g10
(lp59
S'C:5344'
p60
aS'C:5355'
p61
aS'C:5356'
p62
aS'H:5374'
p63
aS'H:5375'
p64
asg13
(lp65
S'C:555'
p66
aS'C:558'
p67
asg18
S'ALA_177_A'
p68
sg20
S'WFE_999_A'
p69
sg22
S'H-H'
p70
sbag4
(g5
g6
Ntp71
Rp72
(dp73
g10
(lp74
S'C:5344'
p75
aS'C:5355'
p76
aS'C:5356'
p77
aS'H:5374'
p78
aS'H:5375'
p79
asg13
(lp80
S'C:198'
p81
asg18
S'LEU_156_A'
p82
sg20
S'WFE_999_A'
p83
sg22
S'H-H'
p84
sbag4
(g5
g6
Ntp85
Rp86
(dp87
g10
(lp88
S'C:5344'
p89
aS'C:5355'
p90
aS'C:5356'
p91
aS'H:5374'
p92
aS'H:5375'
p93
asg13
(lp94
S'C:1398'
p95
asg18
S'MET_227_A'
p96
sg20
S'WFE_999_A'
p97
sg22
S'H-H'
p98
sbag4
(g5
g6
Ntp99
Rp100
(dp101
g10
(lp102
S'C:5344'
p103
aS'C:5355'
p104
aS'C:5356'
p105
aS'H:5374'
p106
aS'H:5375'
p107
asg13
(lp108
S'C:2325'
p109
asg18
S'MET_281_A'
p110
sg20
S'WFE_999_A'
p111
sg22
S'H-H'
p112
sbag4
(g5
g6
Ntp113
Rp114
(dp115
g10
(lp116
S'C:5344'
p117
aS'C:5355'
p118
aS'C:5356'
p119
aS'H:5374'
p120
aS'H:5375'
p121
asg13
(lp122
S'S:2324'
p123
asg18
S'MET_281_A'
p124
sg20
S'WFE_999_A'
p125
sg22
S'H-H'
p126
sbag4
(g5
g6
Ntp127
Rp128
(dp129
g10
(lp130
S'C:5346'
p131
aS'C:5347'
p132
aS'N:5348'
p133
aS'C:5349'
p134
aS'C:5372'
p135
asg13
(lp136
S'C:320'
p137
aS'C:322'
p138
aS'C:324'
p139
asg18
S'VAL_164_A'
p140
sg20
S'WFE_999_A'
p141
sg22
S'H-H'
p142
sbag4
(g5
g6
Ntp143
Rp144
(dp145
g10
(lp146
S'C:5346'
p147
aS'C:5347'
p148
aS'N:5348'
p149
aS'C:5349'
p150
aS'C:5372'
p151
asg13
(lp152
S'C:555'
p153
aS'C:558'
p154
asg18
S'ALA_177_A'
p155
sg20
S'WFE_999_A'
p156
sg22
S'H-H'
p157
sbag4
(g5
g6
Ntp158
Rp159
(dp160
g10
(lp161
S'C:5346'
p162
aS'C:5347'
p163
aS'N:5348'
p164
aS'C:5349'
p165
aS'C:5372'
p166
asg13
(lp167
S'C:1445'
p168
aS'C:1448'
p169
asg18
S'ALA_230_A'
p170
sg20
S'WFE_999_A'
p171
sg22
S'H-H'
p172
sbag4
(g5
g6
Ntp173
Rp174
(dp175
g10
(lp176
S'C:5346'
p177
aS'C:5347'
p178
aS'N:5348'
p179
aS'C:5349'
p180
aS'C:5372'
p181
asg13
(lp182
S'C:1398'
p183
asg18
S'MET_227_A'
p184
sg20
S'WFE_999_A'
p185
sg22
S'H-H'
p186
sbag4
(g5
g6
Ntp187
Rp188
(dp189
g10
(lp190
S'C:5346'
p191
aS'C:5347'
p192
aS'N:5348'
p193
aS'C:5349'
p194
aS'C:5372'
p195
asg13
(lp196
S'S:1397'
p197
asg18
S'MET_227_A'
p198
sg20
S'WFE_999_A'
p199
sg22
S'H-H'
p200
sbag4
(g5
g6
Ntp201
Rp202
(dp203
g10
(lp204
S'C:5346'
p205
aS'C:5347'
p206
aS'N:5348'
p207
aS'C:5349'
p208
aS'C:5372'
p209
asg13
(lp210
S'C:1396'
p211
asg18
S'MET_227_A'
p212
sg20
S'WFE_999_A'
p213
sg22
S'H-H'
p214
sbag4
(g5
g6
Ntp215
Rp216
(dp217
g10
(lp218
S'C:5346'
p219
aS'C:5347'
p220
aS'N:5348'
p221
aS'C:5349'
p222
aS'C:5372'
p223
asg13
(lp224
S'C:1395'
p225
asg18
S'MET_227_A'
p226
sg20
S'WFE_999_A'
p227
sg22
S'H-H'
p228
sbag4
(g5
g6
Ntp229
Rp230
(dp231
g10
(lp232
S'C:5346'
p233
aS'C:5347'
p234
aS'N:5348'
p235
aS'C:5349'
p236
aS'C:5372'
p237
asg13
(lp238
S'C:2325'
p239
asg18
S'MET_281_A'
p240
sg20
S'WFE_999_A'
p241
sg22
S'H-H'
p242
sbag4
(g5
g6
Ntp243
Rp244
(dp245
g10
(lp246
S'C:5346'
p247
aS'C:5347'
p248
aS'N:5348'
p249
aS'C:5349'
p250
aS'C:5372'
p251
asg13
(lp252
S'S:2324'
p253
asg18
S'MET_281_A'
p254
sg20
S'WFE_999_A'
p255
sg22
S'H-H'
p256
sbag4
(g5
g6
Ntp257
Rp258
(dp259
g10
(lp260
S'C:5346'
p261
aS'C:5347'
p262
aS'N:5348'
p263
aS'C:5349'
p264
aS'C:5372'
p265
asg13
(lp266
S'C:2323'
p267
asg18
S'MET_281_A'
p268
sg20
S'WFE_999_A'
p269
sg22
S'H-H'
p270
sbag4
(g5
g6
Ntp271
Rp272
(dp273
g10
(lp274
S'N:5354'
p275
aS'C:5355'
p276
aS'C:5356'
p277
aS'C:5357'
p278
aS'C:5371'
p279
asg13
(lp280
S'C:4884'
p281
aS'C:4885'
p282
aS'C:4886'
p283
aS'C:4887'
p284
aS'C:4888'
p285
aS'C:4889'
p286
asg18
S'PHE_438_A'
p287
sg20
S'WFE_999_A'
p288
sg22
S'H-H'
p289
sbag4
(g5
g6
Ntp290
Rp291
(dp292
g10
(lp293
S'N:5354'
p294
aS'C:5355'
p295
aS'C:5356'
p296
aS'C:5357'
p297
aS'C:5371'
p298
asg13
(lp299
S'C:199'
p300
aS'C:200'
p301
aS'C:201'
p302
asg18
S'LEU_156_A'
p303
sg20
S'WFE_999_A'
p304
sg22
S'H-H'
p305
sbag4
(g5
g6
Ntp306
Rp307
(dp308
g10
(lp309
S'N:5354'
p310
aS'C:5355'
p311
aS'C:5356'
p312
aS'C:5357'
p313
aS'C:5371'
p314
asg13
(lp315
S'C:320'
p316
aS'C:322'
p317
aS'C:324'
p318
asg18
S'VAL_164_A'
p319
sg20
S'WFE_999_A'
p320
sg22
S'H-H'
p321
sbag4
(g5
g6
Ntp322
Rp323
(dp324
g10
(lp325
S'N:5354'
p326
aS'C:5355'
p327
aS'C:5356'
p328
aS'C:5357'
p329
aS'C:5371'
p330
asg13
(lp331
S'C:198'
p332
asg18
S'LEU_156_A'
p333
sg20
S'WFE_999_A'
p334
sg22
S'H-H'
p335
sbag4
(g5
g6
Ntp336
Rp337
(dp338
g10
(lp339
S'N:5354'
p340
aS'C:5355'
p341
aS'C:5356'
p342
aS'C:5357'
p343
aS'C:5371'
p344
asg13
(lp345
S'C:2325'
p346
asg18
S'MET_281_A'
p347
sg20
S'WFE_999_A'
p348
sg22
S'H-H'
p349
sbag4
(g5
g6
Ntp350
Rp351
(dp352
g10
(lp353
S'N:5354'
p354
aS'C:5355'
p355
aS'C:5356'
p356
aS'C:5357'
p357
aS'C:5371'
p358
asg13
(lp359
S'S:2324'
p360
asg18
S'MET_281_A'
p361
sg20
S'WFE_999_A'
p362
sg22
S'H-H'
p363
sbag4
(g5
g6
Ntp364
Rp365
(dp366
g10
(lp367
S'N:5354'
p368
aS'C:5355'
p369
aS'C:5356'
p370
aS'C:5357'
p371
aS'C:5371'
p372
asg13
(lp373
S'C:2323'
p374
asg18
S'MET_281_A'
p375
sg20
S'WFE_999_A'
p376
sg22
S'H-H'
p377
sbag4
(g5
g6
Ntp378
Rp379
(dp380
g10
(lp381
S'C:5349'
p382
aS'N:5350'
p383
aS'C:5351'
p384
aS'N:5352'
p385
aS'C:5353'
p386
aS'C:5372'
p387
asg13
(lp388
S'C:199'
p389
aS'C:200'
p390
aS'C:201'
p391
asg18
S'LEU_156_A'
p392
sg20
S'WFE_999_A'
p393
sg22
S'H-H'
p394
sbag4
(g5
g6
Ntp395
Rp396
(dp397
g10
(lp398
S'C:5349'
p399
aS'N:5350'
p400
aS'C:5351'
p401
aS'N:5352'
p402
aS'C:5353'
p403
aS'C:5372'
p404
asg13
(lp405
S'C:320'
p406
aS'C:322'
p407
aS'C:324'
p408
asg18
S'VAL_164_A'
p409
sg20
S'WFE_999_A'
p410
sg22
S'H-H'
p411
sbag4
(g5
g6
Ntp412
Rp413
(dp414
g10
(lp415
S'C:5349'
p416
aS'N:5350'
p417
aS'C:5351'
p418
aS'N:5352'
p419
aS'C:5353'
p420
aS'C:5372'
p421
asg13
(lp422
S'C:555'
p423
aS'C:558'
p424
asg18
S'ALA_177_A'
p425
sg20
S'WFE_999_A'
p426
sg22
S'H-H'
p427
sbag4
(g5
g6
Ntp428
Rp429
(dp430
g10
(lp431
S'C:5349'
p432
aS'N:5350'
p433
aS'C:5351'
p434
aS'N:5352'
p435
aS'C:5353'
p436
aS'C:5372'
p437
asg13
(lp438
S'C:1445'
p439
aS'C:1448'
p440
asg18
S'ALA_230_A'
p441
sg20
S'WFE_999_A'
p442
sg22
S'H-H'
p443
sbag4
(g5
g6
Ntp444
Rp445
(dp446
g10
(lp447
S'C:5349'
p448
aS'N:5350'
p449
aS'C:5351'
p450
aS'N:5352'
p451
aS'C:5353'
p452
aS'C:5372'
p453
asg13
(lp454
S'C:198'
p455
asg18
S'LEU_156_A'
p456
sg20
S'WFE_999_A'
p457
sg22
S'H-H'
p458
sbag4
(g5
g6
Ntp459
Rp460
(dp461
g10
(lp462
S'C:5349'
p463
aS'N:5350'
p464
aS'C:5351'
p465
aS'N:5352'
p466
aS'C:5353'
p467
aS'C:5372'
p468
asg13
(lp469
S'C:1427'
p470
asg18
S'TYR_229_A'
p471
sg20
S'WFE_999_A'
p472
sg22
S'H-H'
p473
sbag4
(g5
g6
Ntp474
Rp475
(dp476
g10
(lp477
S'C:5349'
p478
aS'N:5350'
p479
aS'C:5351'
p480
aS'N:5352'
p481
aS'C:5353'
p482
aS'C:5372'
p483
asg13
(lp484
S'C:2325'
p485
asg18
S'MET_281_A'
p486
sg20
S'WFE_999_A'
p487
sg22
S'H-H'
p488
sbag4
(g5
g6
Ntp489
Rp490
(dp491
g10
(lp492
S'C:5349'
p493
aS'N:5350'
p494
aS'C:5351'
p495
aS'N:5352'
p496
aS'C:5353'
p497
aS'C:5372'
p498
asg13
(lp499
S'S:2324'
p500
asg18
S'MET_281_A'
p501
sg20
S'WFE_999_A'
p502
sg22
S'H-H'
p503
sbag4
(g5
g6
Ntp504
Rp505
(dp506
g10
(lp507
S'C:5349'
p508
aS'N:5350'
p509
aS'C:5351'
p510
aS'N:5352'
p511
aS'C:5353'
p512
aS'C:5372'
p513
asg13
(lp514
S'C:2323'
p515
asg18
S'MET_281_A'
p516
sg20
S'WFE_999_A'
p517
sg22
S'H-H'
p518
sbag4
(g5
g6
Ntp519
Rp520
(dp521
g10
(lp522
S'C:5349'
p523
aS'N:5350'
p524
aS'C:5351'
p525
aS'N:5352'
p526
aS'C:5353'
p527
aS'C:5372'
p528
asg13
(lp529
S'C:2322'
p530
asg18
S'MET_281_A'
p531
sg20
S'WFE_999_A'
p532
sg22
S'H-H'
p533
sbag4
(g5
g6
Ntp534
Rp535
(dp536
g10
(lp537
S'C:5363'
p538
aS'C:5364'
p539
aS'C:5365'
p540
aS'C:5366'
p541
aS'C:5368'
p542
aS'C:5369'
p543
asg13
(lp544
S'C:320'
p545
aS'C:322'
p546
aS'C:324'
p547
asg18
S'VAL_164_A'
p548
sg20
S'WFE_999_A'
p549
sg22
S'H-H'
p550
sbag4
(g5
g6
Ntp551
Rp552
(dp553
g10
(lp554
S'C:5363'
p555
aS'C:5364'
p556
aS'C:5365'
p557
aS'C:5366'
p558
aS'C:5368'
p559
aS'C:5369'
p560
asg13
(lp561
S'C:267'
p562
asg18
S'PHE_161_A'
p563
sg20
S'WFE_999_A'
p564
sg22
S'H-H'
p565
sbag4
(g5
g6
Ntp566
Rp567
(dp568
g10
(lp569
S'C:5363'
p570
aS'C:5364'
p571
aS'C:5365'
p572
aS'C:5366'
p573
aS'C:5368'
p574
aS'C:5369'
p575
asg13
(lp576
S'C:586'
p577
asg18
S'LYS_179_A'
p578
sg20
S'WFE_999_A'
p579
sg22
S'H-H'
p580
sbag4
(g5
g6
Ntp581
Rp582
(dp583
g10
(lp584
S'C:5345'
p585
asg13
(lp586
S'C:320'
p587
aS'C:322'
p588
aS'C:324'
p589
asg18
S'VAL_164_A'
p590
sg20
S'WFE_999_A'
p591
sg22
S'H-H'
p592
sbag4
(g5
g6
Ntp593
Rp594
(dp595
g10
(lp596
S'C:5345'
p597
asg13
(lp598
S'C:555'
p599
aS'C:558'
p600
asg18
S'ALA_177_A'
p601
sg20
S'WFE_999_A'
p602
sg22
S'H-H'
p603
sbag4
(g5
g6
Ntp604
Rp605
(dp606
g10
(lp607
S'C:5345'
p608
asg13
(lp609
S'C:585'
p610
asg18
S'LYS_179_A'
p611
sg20
S'WFE_999_A'
p612
sg22
S'H-H'
p613
sbag4
(g5
g6
Ntp614
Rp615
(dp616
g10
(lp617
S'C:5345'
p618
asg13
(lp619
S'C:1398'
p620
asg18
S'MET_227_A'
p621
sg20
S'WFE_999_A'
p622
sg22
S'H-H'
p623
sbag4
(g5
g6
Ntp624
Rp625
(dp626
g10
(lp627
S'C:5345'
p628
asg13
(lp629
S'S:1397'
p630
asg18
S'MET_227_A'
p631
sg20
S'WFE_999_A'
p632
sg22
S'H-H'
p633
sbag4
(g5
g6
Ntp634
Rp635
(dp636
g10
(lp637
S'C:5345'
p638
asg13
(lp639
S'C:1396'
p640
asg18
S'MET_227_A'
p641
sg20
S'WFE_999_A'
p642
sg22
S'H-H'
p643
sbag4
(g5
g6
Ntp644
Rp645
(dp646
g10
(lp647
S'C:5345'
p648
asg13
(lp649
S'C:1395'
p650
asg18
S'MET_227_A'
p651
sg20
S'WFE_999_A'
p652
sg22
S'H-H'
p653
sbag4
(g5
g6
Ntp654
Rp655
(dp656
g10
(lp657
S'C:5345'
p658
asg13
(lp659
S'S:2324'
p660
asg18
S'MET_281_A'
p661
sg20
S'WFE_999_A'
p662
sg22
S'H-H'
p663
sbag4
(g5
g6
Ntp664
Rp665
(dp666
g10
(lp667
S'F:5367'
p668
asg13
(lp669
S'C:268'
p670
aS'C:269'
p671
aS'C:270'
p672
aS'C:271'
p673
aS'C:272'
p674
aS'C:273'
p675
asg18
S'PHE_161_A'
p676
sg20
S'WFE_999_A'
p677
sg22
S'H-H'
p678
sbag4
(g5
g6
Ntp679
Rp680
(dp681
g10
(lp682
S'F:5367'
p683
asg13
(lp684
S'C:627'
p685
aS'C:628'
p686
aS'C:629'
p687
asg18
S'LEU_181_A'
p688
sg20
S'WFE_999_A'
p689
sg22
S'H-H'
p690
sbag4
(g5
g6
Ntp691
Rp692
(dp693
g10
(lp694
S'F:5367'
p695
asg13
(lp696
S'C:267'
p697
asg18
S'PHE_161_A'
p698
sg20
S'WFE_999_A'
p699
sg22
S'H-H'
p700
sbag4
(g5
g6
Ntp701
Rp702
(dp703
g10
(lp704
S'F:5367'
p705
asg13
(lp706
S'C:586'
p707
asg18
S'LYS_179_A'
p708
sg20
S'WFE_999_A'
p709
sg22
S'H-H'
p710
sbag4
(g5
g6
Ntp711
Rp712
(dp713
g10
(lp714
S'F:5367'
p715
asg13
(lp716
S'C:626'
p717
asg18
S'LEU_181_A'
p718
sg20
S'WFE_999_A'
p719
sg22
S'H-H'
p720
sbag4
(g5
g6
Ntp721
Rp722
(dp723
g10
(lp724
S'F:5370'
p725
asg13
(lp726
S'C:320'
p727
aS'C:322'
p728
aS'C:324'
p729
asg18
S'VAL_164_A'
p730
sg20
S'WFE_999_A'
p731
sg22
S'H-H'
p732
sbag4
(g5
g6
Ntp733
Rp734
(dp735
g10
(lp736
S'F:5370'
p737
asg13
(lp738
S'C:225'
p739
asg18
S'LYS_158_A'
p740
sg20
S'WFE_999_A'
p741
sg22
S'H-H'
p742
sbag4
(g5
g6
Ntp743
Rp744
(dp745
g10
(lp746
S'F:5370'
p747
asg13
(lp748
S'C:224'
p749
asg18
S'LYS_158_A'
p750
sg20
S'WFE_999_A'
p751
sg22
S'H-H'
p752
sbag4
(g5
g6
Ntp753
Rp754
(dp755
g10
(lp756
S'F:5370'
p757
asg13
(lp758
S'C:294'
p759
asg18
S'LYS_163_A'
p760
sg20
S'WFE_999_A'
p761
sg22
S'H-H'
p762
sbasS'HBD-HBA'
p763
(lp764
g4
(g5
g6
Ntp765
Rp766
(dp767
g10
(lp768
S'N:5348'
p769
aS'H:5379'
p770
asg13
(lp771
S'O:1411'
p772
asg18
S'GLU_228_A'
p773
sg20
S'WFE_999_A'
p774
sg22
g763
sbag4
(g5
g6
Ntp775
Rp776
(dp777
g10
(lp778
S'N:5360'
p779
aS'H:5389'
p780
asg13
(lp781
S'O:2511'
p782
asg18
S'ASP_292_A'
p783
sg20
S'WFE_999_A'
p784
sg22
S'HBD-HBA'
p785
sbag4
(g5
g6
Ntp786
Rp787
(dp788
g10
(lp789
S'N:5358'
p790
asg13
(lp791
S'S:2324'
p792
asg18
S'MET_281_A'
p793
sg20
S'WFE_999_A'
p794
sg22
S'HBD-HBA'
p795
sbag4
(g5
g6
Ntp796
Rp797
(dp798
g10
(lp799
S'N:5358'
p800
asg13
(lp801
S'O:1503'
p802
asg18
S'GLU_234_A'
p803
sg20
S'WFE_999_A'
p804
sg22
S'HBD-HBA'
p805
sbasS'HBA-HBD'
p806
(lp807
g4
(g5
g6
Ntp808
Rp809
(dp810
g10
(lp811
S'N:5350'
p812
asg13
(lp813
S'N:1444'
p814
aS'H:1449'
p815
asg18
S'ALA_230_A'
p816
sg20
S'WFE_999_A'
p817
sg22
g806
sbass.