(dp0
I0
(dp1
S'PI-NI'
p2
(lp3
ccopy_reg
_reconstructor
p4
(c__main__
Ph4InteractionInformation
p5
c__builtin__
object
p6
Ntp7
Rp8
(dp9
S'lig_atom'
p10
(lp11
S'N:10678'
p12
asS'env_atom'
p13
(lp14
S'C:1496'
p15
aS'O:1497'
p16
aS'O:1498'
p17
asS'env_residue'
p18
S'GLU_234_A'
p19
sS'lig_residue'
p20
S'XM1_1_A'
p21
sS'interaction_type'
p22
g2
sbag4
(g5
g6
Ntp23
Rp24
(dp25
g10
(lp26
S'N:10678'
p27
asg13
(lp28
S'C:2467'
p29
aS'O:2468'
p30
aS'O:2469'
p31
asg18
S'ASP_292_A'
p32
sg20
S'XM1_1_A'
p33
sg22
S'PI-NI'
p34
sbasS'H-H'
p35
(lp36
g4
(g5
g6
Ntp37
Rp38
(dp39
g10
(lp40
S'C:10675'
p41
aS'C:10676'
p42
aS'C:10677'
p43
aS'N:10679'
p44
aS'C:10680'
p45
asg13
(lp46
S'C:340'
p47
aS'C:341'
p48
aS'C:342'
p49
asg18
S'VAL_164_A'
p50
sg20
S'XM1_1_A'
p51
sg22
g35
sbag4
(g5
g6
Ntp52
Rp53
(dp54
g10
(lp55
S'C:10675'
p56
aS'C:10676'
p57
aS'C:10677'
p58
aS'N:10679'
p59
aS'C:10680'
p60
asg13
(lp61
S'C:563'
p62
aS'C:566'
p63
asg18
S'ALA_177_A'
p64
sg20
S'XM1_1_A'
p65
sg22
S'H-H'
p66
sbag4
(g5
g6
Ntp67
Rp68
(dp69
g10
(lp70
S'C:10675'
p71
aS'C:10676'
p72
aS'C:10677'
p73
aS'N:10679'
p74
aS'C:10680'
p75
asg13
(lp76
S'C:1453'
p77
aS'C:1456'
p78
asg18
S'ALA_230_A'
p79
sg20
S'XM1_1_A'
p80
sg22
S'H-H'
p81
sbag4
(g5
g6
Ntp82
Rp83
(dp84
g10
(lp85
S'C:10675'
p86
aS'C:10676'
p87
aS'C:10677'
p88
aS'N:10679'
p89
aS'C:10680'
p90
asg13
(lp91
S'C:1406'
p92
asg18
S'MET_227_A'
p93
sg20
S'XM1_1_A'
p94
sg22
S'H-H'
p95
sbag4
(g5
g6
Ntp96
Rp97
(dp98
g10
(lp99
S'C:10675'
p100
aS'C:10676'
p101
aS'C:10677'
p102
aS'N:10679'
p103
aS'C:10680'
p104
asg13
(lp105
S'S:1405'
p106
asg18
S'MET_227_A'
p107
sg20
S'XM1_1_A'
p108
sg22
S'H-H'
p109
sbag4
(g5
g6
Ntp110
Rp111
(dp112
g10
(lp113
S'C:10675'
p114
aS'C:10676'
p115
aS'C:10677'
p116
aS'N:10679'
p117
aS'C:10680'
p118
asg13
(lp119
S'C:1404'
p120
asg18
S'MET_227_A'
p121
sg20
S'XM1_1_A'
p122
sg22
S'H-H'
p123
sbag4
(g5
g6
Ntp124
Rp125
(dp126
g10
(lp127
S'C:10675'
p128
aS'C:10676'
p129
aS'C:10677'
p130
aS'N:10679'
p131
aS'C:10680'
p132
asg13
(lp133
S'C:1403'
p134
asg18
S'MET_227_A'
p135
sg20
S'XM1_1_A'
p136
sg22
S'H-H'
p137
sbag4
(g5
g6
Ntp138
Rp139
(dp140
g10
(lp141
S'C:10675'
p142
aS'C:10676'
p143
aS'C:10677'
p144
aS'N:10679'
p145
aS'C:10680'
p146
asg13
(lp147
S'C:2289'
p148
asg18
S'MET_281_A'
p149
sg20
S'XM1_1_A'
p150
sg22
S'H-H'
p151
sbag4
(g5
g6
Ntp152
Rp153
(dp154
g10
(lp155
S'C:10675'
p156
aS'C:10676'
p157
aS'C:10677'
p158
aS'N:10679'
p159
aS'C:10680'
p160
asg13
(lp161
S'S:2288'
p162
asg18
S'MET_281_A'
p163
sg20
S'XM1_1_A'
p164
sg22
S'H-H'
p165
sbag4
(g5
g6
Ntp166
Rp167
(dp168
g10
(lp169
S'C:10673'
p170
aS'C:10675'
p171
aS'C:10680'
p172
aS'N:10681'
p173
aS'C:10682'
p174
aS'N:10683'
p175
asg13
(lp176
S'C:223'
p177
aS'C:224'
p178
aS'C:225'
p179
asg18
S'LEU_156_A'
p180
sg20
S'XM1_1_A'
p181
sg22
S'H-H'
p182
sbag4
(g5
g6
Ntp183
Rp184
(dp185
g10
(lp186
S'C:10673'
p187
aS'C:10675'
p188
aS'C:10680'
p189
aS'N:10681'
p190
aS'C:10682'
p191
aS'N:10683'
p192
asg13
(lp193
S'C:340'
p194
aS'C:341'
p195
aS'C:342'
p196
asg18
S'VAL_164_A'
p197
sg20
S'XM1_1_A'
p198
sg22
S'H-H'
p199
sbag4
(g5
g6
Ntp200
Rp201
(dp202
g10
(lp203
S'C:10673'
p204
aS'C:10675'
p205
aS'C:10680'
p206
aS'N:10681'
p207
aS'C:10682'
p208
aS'N:10683'
p209
asg13
(lp210
S'C:563'
p211
aS'C:566'
p212
asg18
S'ALA_177_A'
p213
sg20
S'XM1_1_A'
p214
sg22
S'H-H'
p215
sbag4
(g5
g6
Ntp216
Rp217
(dp218
g10
(lp219
S'C:10673'
p220
aS'C:10675'
p221
aS'C:10680'
p222
aS'N:10681'
p223
aS'C:10682'
p224
aS'N:10683'
p225
asg13
(lp226
S'C:1453'
p227
aS'C:1456'
p228
asg18
S'ALA_230_A'
p229
sg20
S'XM1_1_A'
p230
sg22
S'H-H'
p231
sbag4
(g5
g6
Ntp232
Rp233
(dp234
g10
(lp235
S'C:10673'
p236
aS'C:10675'
p237
aS'C:10680'
p238
aS'N:10681'
p239
aS'C:10682'
p240
aS'N:10683'
p241
asg13
(lp242
S'C:222'
p243
asg18
S'LEU_156_A'
p244
sg20
S'XM1_1_A'
p245
sg22
S'H-H'
p246
sbag4
(g5
g6
Ntp247
Rp248
(dp249
g10
(lp250
S'C:10673'
p251
aS'C:10675'
p252
aS'C:10680'
p253
aS'N:10681'
p254
aS'C:10682'
p255
aS'N:10683'
p256
asg13
(lp257
S'C:2289'
p258
asg18
S'MET_281_A'
p259
sg20
S'XM1_1_A'
p260
sg22
S'H-H'
p261
sbag4
(g5
g6
Ntp262
Rp263
(dp264
g10
(lp265
S'C:10673'
p266
aS'C:10675'
p267
aS'C:10680'
p268
aS'N:10681'
p269
aS'C:10682'
p270
aS'N:10683'
p271
asg13
(lp272
S'S:2288'
p273
asg18
S'MET_281_A'
p274
sg20
S'XM1_1_A'
p275
sg22
S'H-H'
p276
sbag4
(g5
g6
Ntp277
Rp278
(dp279
g10
(lp280
S'C:10673'
p281
aS'C:10675'
p282
aS'C:10680'
p283
aS'N:10681'
p284
aS'C:10682'
p285
aS'N:10683'
p286
asg13
(lp287
S'C:2287'
p288
asg18
S'MET_281_A'
p289
sg20
S'XM1_1_A'
p290
sg22
S'H-H'
p291
sbag4
(g5
g6
Ntp292
Rp293
(dp294
g10
(lp295
S'C:10673'
p296
aS'C:10675'
p297
aS'C:10680'
p298
aS'N:10681'
p299
aS'C:10682'
p300
aS'N:10683'
p301
asg13
(lp302
S'C:2286'
p303
asg18
S'MET_281_A'
p304
sg20
S'XM1_1_A'
p305
sg22
S'H-H'
p306
sbag4
(g5
g6
Ntp307
Rp308
(dp309
g10
(lp310
S'N:10684'
p311
aS'C:10685'
p312
aS'C:10686'
p313
aS'N:10687'
p314
aS'C:10688'
p315
aS'C:10689'
p316
asg13
(lp317
S'C:340'
p318
aS'C:341'
p319
aS'C:342'
p320
asg18
S'VAL_164_A'
p321
sg20
S'XM1_1_A'
p322
sg22
S'H-H'
p323
sbag4
(g5
g6
Ntp324
Rp325
(dp326
g10
(lp327
S'N:10684'
p328
aS'C:10685'
p329
aS'C:10686'
p330
aS'N:10687'
p331
aS'C:10688'
p332
aS'C:10689'
p333
asg13
(lp334
S'C:222'
p335
asg18
S'LEU_156_A'
p336
sg20
S'XM1_1_A'
p337
sg22
S'H-H'
p338
sbag4
(g5
g6
Ntp339
Rp340
(dp341
g10
(lp342
S'N:10684'
p343
aS'C:10685'
p344
aS'C:10686'
p345
aS'N:10687'
p346
aS'C:10688'
p347
aS'C:10689'
p348
asg13
(lp349
S'C:2289'
p350
asg18
S'MET_281_A'
p351
sg20
S'XM1_1_A'
p352
sg22
S'H-H'
p353
sbag4
(g5
g6
Ntp354
Rp355
(dp356
g10
(lp357
S'N:10684'
p358
aS'C:10685'
p359
aS'C:10686'
p360
aS'N:10687'
p361
aS'C:10688'
p362
aS'C:10689'
p363
asg13
(lp364
S'S:2288'
p365
asg18
S'MET_281_A'
p366
sg20
S'XM1_1_A'
p367
sg22
S'H-H'
p368
sbag4
(g5
g6
Ntp369
Rp370
(dp371
g10
(lp372
S'C:10695'
p373
aS'C:10696'
p374
aS'C:10697'
p375
aS'C:10698'
p376
aS'C:10699'
p377
aS'C:10700'
p378
asg13
(lp379
S'C:340'
p380
aS'C:341'
p381
aS'C:342'
p382
asg18
S'VAL_164_A'
p383
sg20
S'XM1_1_A'
p384
sg22
S'H-H'
p385
sbag4
(g5
g6
Ntp386
Rp387
(dp388
g10
(lp389
S'C:10695'
p390
aS'C:10696'
p391
aS'C:10697'
p392
aS'C:10698'
p393
aS'C:10699'
p394
aS'C:10700'
p395
asg13
(lp396
S'C:594'
p397
asg18
S'LYS_179_A'
p398
sg20
S'XM1_1_A'
p399
sg22
S'H-H'
p400
sbag4
(g5
g6
Ntp401
Rp402
(dp403
g10
(lp404
S'Cl:10674'
p405
asg13
(lp406
S'C:340'
p407
aS'C:341'
p408
aS'C:342'
p409
asg18
S'VAL_164_A'
p410
sg20
S'XM1_1_A'
p411
sg22
S'H-H'
p412
sbag4
(g5
g6
Ntp413
Rp414
(dp415
g10
(lp416
S'Cl:10674'
p417
asg13
(lp418
S'C:635'
p419
aS'C:636'
p420
aS'C:637'
p421
asg18
S'LEU_181_A'
p422
sg20
S'XM1_1_A'
p423
sg22
S'H-H'
p424
sbag4
(g5
g6
Ntp425
Rp426
(dp427
g10
(lp428
S'Cl:10674'
p429
asg13
(lp430
S'C:291'
p431
asg18
S'PHE_161_A'
p432
sg20
S'XM1_1_A'
p433
sg22
S'H-H'
p434
sbag4
(g5
g6
Ntp435
Rp436
(dp437
g10
(lp438
S'Cl:10674'
p439
asg13
(lp440
S'C:318'
p441
asg18
S'LYS_163_A'
p442
sg20
S'XM1_1_A'
p443
sg22
S'H-H'
p444
sbag4
(g5
g6
Ntp445
Rp446
(dp447
g10
(lp448
S'Cl:10674'
p449
asg13
(lp450
S'C:594'
p451
asg18
S'LYS_179_A'
p452
sg20
S'XM1_1_A'
p453
sg22
S'H-H'
p454
sbag4
(g5
g6
Ntp455
Rp456
(dp457
g10
(lp458
S'Cl:10674'
p459
asg13
(lp460
S'C:593'
p461
asg18
S'LYS_179_A'
p462
sg20
S'XM1_1_A'
p463
sg22
S'H-H'
p464
sbasS'HBD-HBA'
p465
(lp466
g4
(g5
g6
Ntp467
Rp468
(dp469
g10
(lp470
S'N:10679'
p471
aS'H:10705'
p472
asg13
(lp473
S'O:1419'
p474
asg18
S'GLU_228_A'
p475
sg20
S'XM1_1_A'
p476
sg22
g465
sbag4
(g5
g6
Ntp477
Rp478
(dp479
g10
(lp480
S'N:10678'
p481
asg13
(lp482
S'O:1498'
p483
asg18
S'GLU_234_A'
p484
sg20
S'XM1_1_A'
p485
sg22
S'HBD-HBA'
p486
sbag4
(g5
g6
Ntp487
Rp488
(dp489
g10
(lp490
S'N:10678'
p491
asg13
(lp492
S'O:2237'
p493
asg18
S'GLU_278_A'
p494
sg20
S'XM1_1_A'
p495
sg22
S'HBD-HBA'
p496
sbag4
(g5
g6
Ntp497
Rp498
(dp499
g10
(lp500
S'N:10678'
p501
asg13
(lp502
S'O:2255'
p503
asg18
S'ASN_279_A'
p504
sg20
S'XM1_1_A'
p505
sg22
S'HBD-HBA'
p506
sbag4
(g5
g6
Ntp507
Rp508
(dp509
g10
(lp510
S'N:10678'
p511
asg13
(lp512
S'O:2468'
p513
asg18
S'ASP_292_A'
p514
sg20
S'XM1_1_A'
p515
sg22
S'HBD-HBA'
p516
sbasS'HBA-HBD'
p517
(lp518
g4
(g5
g6
Ntp519
Rp520
(dp521
g10
(lp522
S'N:10683'
p523
asg13
(lp524
S'N:1452'
p525
aS'H:1457'
p526
asg18
S'ALA_230_A'
p527
sg20
S'XM1_1_A'
p528
sg22
g517
sbass.