(dp0
I0
(dp1
S'PI-NI'
p2
(lp3
ccopy_reg
_reconstructor
p4
(c__main__
Ph4InteractionInformation
p5
c__builtin__
object
p6
Ntp7
Rp8
(dp9
S'lig_atom'
p10
(lp11
S'N:10678'
p12
asS'env_atom'
p13
(lp14
S'C:1496'
p15
aS'O:1497'
p16
aS'O:1498'
p17
asS'env_residue'
p18
S'GLU_234_B'
p19
sS'lig_residue'
p20
S'XM1_2_B'
p21
sS'interaction_type'
p22
g2
sbag4
(g5
g6
Ntp23
Rp24
(dp25
g10
(lp26
S'N:10678'
p27
asg13
(lp28
S'C:2467'
p29
aS'O:2468'
p30
aS'O:2469'
p31
asg18
S'ASP_292_B'
p32
sg20
S'XM1_2_B'
p33
sg22
S'PI-NI'
p34
sbasS'H-H'
p35
(lp36
g4
(g5
g6
Ntp37
Rp38
(dp39
g10
(lp40
S'C:10675'
p41
aS'C:10676'
p42
aS'C:10677'
p43
aS'N:10679'
p44
aS'C:10680'
p45
asg13
(lp46
S'C:340'
p47
aS'C:341'
p48
aS'C:342'
p49
asg18
S'VAL_164_B'
p50
sg20
S'XM1_2_B'
p51
sg22
g35
sbag4
(g5
g6
Ntp52
Rp53
(dp54
g10
(lp55
S'C:10675'
p56
aS'C:10676'
p57
aS'C:10677'
p58
aS'N:10679'
p59
aS'C:10680'
p60
asg13
(lp61
S'C:563'
p62
aS'C:566'
p63
asg18
S'ALA_177_B'
p64
sg20
S'XM1_2_B'
p65
sg22
S'H-H'
p66
sbag4
(g5
g6
Ntp67
Rp68
(dp69
g10
(lp70
S'C:10675'
p71
aS'C:10676'
p72
aS'C:10677'
p73
aS'N:10679'
p74
aS'C:10680'
p75
asg13
(lp76
S'C:1453'
p77
aS'C:1456'
p78
asg18
S'ALA_230_B'
p79
sg20
S'XM1_2_B'
p80
sg22
S'H-H'
p81
sbag4
(g5
g6
Ntp82
Rp83
(dp84
g10
(lp85
S'C:10675'
p86
aS'C:10676'
p87
aS'C:10677'
p88
aS'N:10679'
p89
aS'C:10680'
p90
asg13
(lp91
S'C:1406'
p92
asg18
S'MET_227_B'
p93
sg20
S'XM1_2_B'
p94
sg22
S'H-H'
p95
sbag4
(g5
g6
Ntp96
Rp97
(dp98
g10
(lp99
S'C:10675'
p100
aS'C:10676'
p101
aS'C:10677'
p102
aS'N:10679'
p103
aS'C:10680'
p104
asg13
(lp105
S'S:1405'
p106
asg18
S'MET_227_B'
p107
sg20
S'XM1_2_B'
p108
sg22
S'H-H'
p109
sbag4
(g5
g6
Ntp110
Rp111
(dp112
g10
(lp113
S'C:10675'
p114
aS'C:10676'
p115
aS'C:10677'
p116
aS'N:10679'
p117
aS'C:10680'
p118
asg13
(lp119
S'C:1404'
p120
asg18
S'MET_227_B'
p121
sg20
S'XM1_2_B'
p122
sg22
S'H-H'
p123
sbag4
(g5
g6
Ntp124
Rp125
(dp126
g10
(lp127
S'C:10675'
p128
aS'C:10676'
p129
aS'C:10677'
p130
aS'N:10679'
p131
aS'C:10680'
p132
asg13
(lp133
S'C:1403'
p134
asg18
S'MET_227_B'
p135
sg20
S'XM1_2_B'
p136
sg22
S'H-H'
p137
sbag4
(g5
g6
Ntp138
Rp139
(dp140
g10
(lp141
S'C:10675'
p142
aS'C:10676'
p143
aS'C:10677'
p144
aS'N:10679'
p145
aS'C:10680'
p146
asg13
(lp147
S'C:2289'
p148
asg18
S'MET_281_B'
p149
sg20
S'XM1_2_B'
p150
sg22
S'H-H'
p151
sbag4
(g5
g6
Ntp152
Rp153
(dp154
g10
(lp155
S'C:10675'
p156
aS'C:10676'
p157
aS'C:10677'
p158
aS'N:10679'
p159
aS'C:10680'
p160
asg13
(lp161
S'S:2288'
p162
asg18
S'MET_281_B'
p163
sg20
S'XM1_2_B'
p164
sg22
S'H-H'
p165
sbag4
(g5
g6
Ntp166
Rp167
(dp168
g10
(lp169
S'C:10675'
p170
aS'C:10676'
p171
aS'C:10677'
p172
aS'N:10679'
p173
aS'C:10680'
p174
asg13
(lp175
S'C:2287'
p176
asg18
S'MET_281_B'
p177
sg20
S'XM1_2_B'
p178
sg22
S'H-H'
p179
sbag4
(g5
g6
Ntp180
Rp181
(dp182
g10
(lp183
S'C:10673'
p184
aS'C:10675'
p185
aS'C:10680'
p186
aS'N:10681'
p187
aS'C:10682'
p188
aS'N:10683'
p189
asg13
(lp190
S'C:223'
p191
aS'C:224'
p192
aS'C:225'
p193
asg18
S'LEU_156_B'
p194
sg20
S'XM1_2_B'
p195
sg22
S'H-H'
p196
sbag4
(g5
g6
Ntp197
Rp198
(dp199
g10
(lp200
S'C:10673'
p201
aS'C:10675'
p202
aS'C:10680'
p203
aS'N:10681'
p204
aS'C:10682'
p205
aS'N:10683'
p206
asg13
(lp207
S'C:340'
p208
aS'C:341'
p209
aS'C:342'
p210
asg18
S'VAL_164_B'
p211
sg20
S'XM1_2_B'
p212
sg22
S'H-H'
p213
sbag4
(g5
g6
Ntp214
Rp215
(dp216
g10
(lp217
S'C:10673'
p218
aS'C:10675'
p219
aS'C:10680'
p220
aS'N:10681'
p221
aS'C:10682'
p222
aS'N:10683'
p223
asg13
(lp224
S'C:563'
p225
aS'C:566'
p226
asg18
S'ALA_177_B'
p227
sg20
S'XM1_2_B'
p228
sg22
S'H-H'
p229
sbag4
(g5
g6
Ntp230
Rp231
(dp232
g10
(lp233
S'C:10673'
p234
aS'C:10675'
p235
aS'C:10680'
p236
aS'N:10681'
p237
aS'C:10682'
p238
aS'N:10683'
p239
asg13
(lp240
S'C:1453'
p241
aS'C:1456'
p242
asg18
S'ALA_230_B'
p243
sg20
S'XM1_2_B'
p244
sg22
S'H-H'
p245
sbag4
(g5
g6
Ntp246
Rp247
(dp248
g10
(lp249
S'C:10673'
p250
aS'C:10675'
p251
aS'C:10680'
p252
aS'N:10681'
p253
aS'C:10682'
p254
aS'N:10683'
p255
asg13
(lp256
S'C:222'
p257
asg18
S'LEU_156_B'
p258
sg20
S'XM1_2_B'
p259
sg22
S'H-H'
p260
sbag4
(g5
g6
Ntp261
Rp262
(dp263
g10
(lp264
S'C:10673'
p265
aS'C:10675'
p266
aS'C:10680'
p267
aS'N:10681'
p268
aS'C:10682'
p269
aS'N:10683'
p270
asg13
(lp271
S'C:1406'
p272
asg18
S'MET_227_B'
p273
sg20
S'XM1_2_B'
p274
sg22
S'H-H'
p275
sbag4
(g5
g6
Ntp276
Rp277
(dp278
g10
(lp279
S'C:10673'
p280
aS'C:10675'
p281
aS'C:10680'
p282
aS'N:10681'
p283
aS'C:10682'
p284
aS'N:10683'
p285
asg13
(lp286
S'C:2289'
p287
asg18
S'MET_281_B'
p288
sg20
S'XM1_2_B'
p289
sg22
S'H-H'
p290
sbag4
(g5
g6
Ntp291
Rp292
(dp293
g10
(lp294
S'C:10673'
p295
aS'C:10675'
p296
aS'C:10680'
p297
aS'N:10681'
p298
aS'C:10682'
p299
aS'N:10683'
p300
asg13
(lp301
S'S:2288'
p302
asg18
S'MET_281_B'
p303
sg20
S'XM1_2_B'
p304
sg22
S'H-H'
p305
sbag4
(g5
g6
Ntp306
Rp307
(dp308
g10
(lp309
S'C:10673'
p310
aS'C:10675'
p311
aS'C:10680'
p312
aS'N:10681'
p313
aS'C:10682'
p314
aS'N:10683'
p315
asg13
(lp316
S'C:2287'
p317
asg18
S'MET_281_B'
p318
sg20
S'XM1_2_B'
p319
sg22
S'H-H'
p320
sbag4
(g5
g6
Ntp321
Rp322
(dp323
g10
(lp324
S'C:10673'
p325
aS'C:10675'
p326
aS'C:10680'
p327
aS'N:10681'
p328
aS'C:10682'
p329
aS'N:10683'
p330
asg13
(lp331
S'C:2286'
p332
asg18
S'MET_281_B'
p333
sg20
S'XM1_2_B'
p334
sg22
S'H-H'
p335
sbag4
(g5
g6
Ntp336
Rp337
(dp338
g10
(lp339
S'N:10684'
p340
aS'C:10685'
p341
aS'C:10686'
p342
aS'N:10687'
p343
aS'C:10688'
p344
aS'C:10689'
p345
asg13
(lp346
S'C:340'
p347
aS'C:341'
p348
aS'C:342'
p349
asg18
S'VAL_164_B'
p350
sg20
S'XM1_2_B'
p351
sg22
S'H-H'
p352
sbag4
(g5
g6
Ntp353
Rp354
(dp355
g10
(lp356
S'N:10684'
p357
aS'C:10685'
p358
aS'C:10686'
p359
aS'N:10687'
p360
aS'C:10688'
p361
aS'C:10689'
p362
asg13
(lp363
S'C:222'
p364
asg18
S'LEU_156_B'
p365
sg20
S'XM1_2_B'
p366
sg22
S'H-H'
p367
sbag4
(g5
g6
Ntp368
Rp369
(dp370
g10
(lp371
S'N:10684'
p372
aS'C:10685'
p373
aS'C:10686'
p374
aS'N:10687'
p375
aS'C:10688'
p376
aS'C:10689'
p377
asg13
(lp378
S'C:2289'
p379
asg18
S'MET_281_B'
p380
sg20
S'XM1_2_B'
p381
sg22
S'H-H'
p382
sbag4
(g5
g6
Ntp383
Rp384
(dp385
g10
(lp386
S'N:10684'
p387
aS'C:10685'
p388
aS'C:10686'
p389
aS'N:10687'
p390
aS'C:10688'
p391
aS'C:10689'
p392
asg13
(lp393
S'S:2288'
p394
asg18
S'MET_281_B'
p395
sg20
S'XM1_2_B'
p396
sg22
S'H-H'
p397
sbag4
(g5
g6
Ntp398
Rp399
(dp400
g10
(lp401
S'N:10684'
p402
aS'C:10685'
p403
aS'C:10686'
p404
aS'N:10687'
p405
aS'C:10688'
p406
aS'C:10689'
p407
asg13
(lp408
S'C:2287'
p409
asg18
S'MET_281_B'
p410
sg20
S'XM1_2_B'
p411
sg22
S'H-H'
p412
sbag4
(g5
g6
Ntp413
Rp414
(dp415
g10
(lp416
S'C:10695'
p417
aS'C:10696'
p418
aS'C:10697'
p419
aS'C:10698'
p420
aS'C:10699'
p421
aS'C:10700'
p422
asg13
(lp423
S'C:340'
p424
aS'C:341'
p425
aS'C:342'
p426
asg18
S'VAL_164_B'
p427
sg20
S'XM1_2_B'
p428
sg22
S'H-H'
p429
sbag4
(g5
g6
Ntp430
Rp431
(dp432
g10
(lp433
S'C:10695'
p434
aS'C:10696'
p435
aS'C:10697'
p436
aS'C:10698'
p437
aS'C:10699'
p438
aS'C:10700'
p439
asg13
(lp440
S'C:594'
p441
asg18
S'LYS_179_B'
p442
sg20
S'XM1_2_B'
p443
sg22
S'H-H'
p444
sbag4
(g5
g6
Ntp445
Rp446
(dp447
g10
(lp448
S'Cl:10674'
p449
asg13
(lp450
S'C:340'
p451
aS'C:341'
p452
aS'C:342'
p453
asg18
S'VAL_164_B'
p454
sg20
S'XM1_2_B'
p455
sg22
S'H-H'
p456
sbag4
(g5
g6
Ntp457
Rp458
(dp459
g10
(lp460
S'Cl:10674'
p461
asg13
(lp462
S'C:635'
p463
aS'C:636'
p464
aS'C:637'
p465
asg18
S'LEU_181_B'
p466
sg20
S'XM1_2_B'
p467
sg22
S'H-H'
p468
sbag4
(g5
g6
Ntp469
Rp470
(dp471
g10
(lp472
S'Cl:10674'
p473
asg13
(lp474
S'C:291'
p475
asg18
S'PHE_161_B'
p476
sg20
S'XM1_2_B'
p477
sg22
S'H-H'
p478
sbag4
(g5
g6
Ntp479
Rp480
(dp481
g10
(lp482
S'Cl:10674'
p483
asg13
(lp484
S'C:318'
p485
asg18
S'LYS_163_B'
p486
sg20
S'XM1_2_B'
p487
sg22
S'H-H'
p488
sbag4
(g5
g6
Ntp489
Rp490
(dp491
g10
(lp492
S'Cl:10674'
p493
asg13
(lp494
S'C:594'
p495
asg18
S'LYS_179_B'
p496
sg20
S'XM1_2_B'
p497
sg22
S'H-H'
p498
sbag4
(g5
g6
Ntp499
Rp500
(dp501
g10
(lp502
S'Cl:10674'
p503
asg13
(lp504
S'C:593'
p505
asg18
S'LYS_179_B'
p506
sg20
S'XM1_2_B'
p507
sg22
S'H-H'
p508
sbasS'HBD-HBA'
p509
(lp510
g4
(g5
g6
Ntp511
Rp512
(dp513
g10
(lp514
S'N:10679'
p515
aS'H:10705'
p516
asg13
(lp517
S'O:1419'
p518
asg18
S'GLU_228_B'
p519
sg20
S'XM1_2_B'
p520
sg22
g509
sbag4
(g5
g6
Ntp521
Rp522
(dp523
g10
(lp524
S'N:10678'
p525
asg13
(lp526
S'O:2237'
p527
asg18
S'GLU_278_B'
p528
sg20
S'XM1_2_B'
p529
sg22
S'HBD-HBA'
p530
sbag4
(g5
g6
Ntp531
Rp532
(dp533
g10
(lp534
S'N:10678'
p535
asg13
(lp536
S'O:2255'
p537
asg18
S'ASN_279_B'
p538
sg20
S'XM1_2_B'
p539
sg22
S'HBD-HBA'
p540
sbag4
(g5
g6
Ntp541
Rp542
(dp543
g10
(lp544
S'N:10678'
p545
asg13
(lp546
S'O:2468'
p547
asg18
S'ASP_292_B'
p548
sg20
S'XM1_2_B'
p549
sg22
S'HBD-HBA'
p550
sbasS'HBA-HBD'
p551
(lp552
g4
(g5
g6
Ntp553
Rp554
(dp555
g10
(lp556
S'N:10683'
p557
asg13
(lp558
S'N:1452'
p559
aS'H:1457'
p560
asg18
S'ALA_230_B'
p561
sg20
S'XM1_2_B'
p562
sg22
g551
sbass.