(dp0
I0
(dp1
S'PI-NI'
p2
(lp3
ccopy_reg
_reconstructor
p4
(c__main__
Ph4InteractionInformation
p5
c__builtin__
object
p6
Ntp7
Rp8
(dp9
S'lig_atom'
p10
(lp11
S'N:10702'
p12
asS'env_atom'
p13
(lp14
S'C:1496'
p15
aS'O:1497'
p16
aS'O:1498'
p17
asS'env_residue'
p18
S'GLU_234_B'
p19
sS'lig_residue'
p20
S'SMY_2_B'
p21
sS'interaction_type'
p22
g2
sbasS'H-H'
p23
(lp24
g4
(g5
g6
Ntp25
Rp26
(dp27
g10
(lp28
S'C:10676'
p29
aS'C:10677'
p30
aS'C:10679'
p31
aS'S:10680'
p32
aS'C:10681'
p33
asg13
(lp34
S'C:340'
p35
aS'C:341'
p36
aS'C:342'
p37
asg18
S'VAL_164_B'
p38
sg20
S'SMY_2_B'
p39
sg22
g23
sbag4
(g5
g6
Ntp40
Rp41
(dp42
g10
(lp43
S'C:10676'
p44
aS'C:10677'
p45
aS'C:10679'
p46
aS'S:10680'
p47
aS'C:10681'
p48
asg13
(lp49
S'C:563'
p50
aS'C:566'
p51
asg18
S'ALA_177_B'
p52
sg20
S'SMY_2_B'
p53
sg22
S'H-H'
p54
sbag4
(g5
g6
Ntp55
Rp56
(dp57
g10
(lp58
S'C:10676'
p59
aS'C:10677'
p60
aS'C:10679'
p61
aS'S:10680'
p62
aS'C:10681'
p63
asg13
(lp64
S'C:1453'
p65
aS'C:1456'
p66
asg18
S'ALA_230_B'
p67
sg20
S'SMY_2_B'
p68
sg22
S'H-H'
p69
sbag4
(g5
g6
Ntp70
Rp71
(dp72
g10
(lp73
S'C:10676'
p74
aS'C:10677'
p75
aS'C:10679'
p76
aS'S:10680'
p77
aS'C:10681'
p78
asg13
(lp79
S'C:1406'
p80
asg18
S'MET_227_B'
p81
sg20
S'SMY_2_B'
p82
sg22
S'H-H'
p83
sbag4
(g5
g6
Ntp84
Rp85
(dp86
g10
(lp87
S'C:10676'
p88
aS'C:10677'
p89
aS'C:10679'
p90
aS'S:10680'
p91
aS'C:10681'
p92
asg13
(lp93
S'S:1405'
p94
asg18
S'MET_227_B'
p95
sg20
S'SMY_2_B'
p96
sg22
S'H-H'
p97
sbag4
(g5
g6
Ntp98
Rp99
(dp100
g10
(lp101
S'C:10676'
p102
aS'C:10677'
p103
aS'C:10679'
p104
aS'S:10680'
p105
aS'C:10681'
p106
asg13
(lp107
S'C:1403'
p108
asg18
S'MET_227_B'
p109
sg20
S'SMY_2_B'
p110
sg22
S'H-H'
p111
sbag4
(g5
g6
Ntp112
Rp113
(dp114
g10
(lp115
S'C:10676'
p116
aS'C:10677'
p117
aS'C:10679'
p118
aS'S:10680'
p119
aS'C:10681'
p120
asg13
(lp121
S'C:2289'
p122
asg18
S'MET_281_B'
p123
sg20
S'SMY_2_B'
p124
sg22
S'H-H'
p125
sbag4
(g5
g6
Ntp126
Rp127
(dp128
g10
(lp129
S'C:10676'
p130
aS'C:10677'
p131
aS'C:10679'
p132
aS'S:10680'
p133
aS'C:10681'
p134
asg13
(lp135
S'S:2288'
p136
asg18
S'MET_281_B'
p137
sg20
S'SMY_2_B'
p138
sg22
S'H-H'
p139
sbag4
(g5
g6
Ntp140
Rp141
(dp142
g10
(lp143
S'C:10676'
p144
aS'C:10677'
p145
aS'C:10679'
p146
aS'S:10680'
p147
aS'C:10681'
p148
asg13
(lp149
S'C:2287'
p150
asg18
S'MET_281_B'
p151
sg20
S'SMY_2_B'
p152
sg22
S'H-H'
p153
sbag4
(g5
g6
Ntp154
Rp155
(dp156
g10
(lp157
S'C:10693'
p158
aS'C:10694'
p159
aS'N:10695'
p160
aS'C:10696'
p161
aS'C:10697'
p162
asg13
(lp163
S'C:594'
p164
asg18
S'LYS_179_B'
p165
sg20
S'SMY_2_B'
p166
sg22
S'H-H'
p167
sbag4
(g5
g6
Ntp168
Rp169
(dp170
g10
(lp171
S'N:10673'
p172
aS'C:10674'
p173
aS'N:10675'
p174
aS'C:10676'
p175
aS'C:10677'
p176
aS'C:10678'
p177
asg13
(lp178
S'C:223'
p179
aS'C:224'
p180
aS'C:225'
p181
asg18
S'LEU_156_B'
p182
sg20
S'SMY_2_B'
p183
sg22
S'H-H'
p184
sbag4
(g5
g6
Ntp185
Rp186
(dp187
g10
(lp188
S'N:10673'
p189
aS'C:10674'
p190
aS'N:10675'
p191
aS'C:10676'
p192
aS'C:10677'
p193
aS'C:10678'
p194
asg13
(lp195
S'C:340'
p196
aS'C:341'
p197
aS'C:342'
p198
asg18
S'VAL_164_B'
p199
sg20
S'SMY_2_B'
p200
sg22
S'H-H'
p201
sbag4
(g5
g6
Ntp202
Rp203
(dp204
g10
(lp205
S'N:10673'
p206
aS'C:10674'
p207
aS'N:10675'
p208
aS'C:10676'
p209
aS'C:10677'
p210
aS'C:10678'
p211
asg13
(lp212
S'C:563'
p213
aS'C:566'
p214
asg18
S'ALA_177_B'
p215
sg20
S'SMY_2_B'
p216
sg22
S'H-H'
p217
sbag4
(g5
g6
Ntp218
Rp219
(dp220
g10
(lp221
S'N:10673'
p222
aS'C:10674'
p223
aS'N:10675'
p224
aS'C:10676'
p225
aS'C:10677'
p226
aS'C:10678'
p227
asg13
(lp228
S'C:1453'
p229
aS'C:1456'
p230
asg18
S'ALA_230_B'
p231
sg20
S'SMY_2_B'
p232
sg22
S'H-H'
p233
sbag4
(g5
g6
Ntp234
Rp235
(dp236
g10
(lp237
S'N:10673'
p238
aS'C:10674'
p239
aS'N:10675'
p240
aS'C:10676'
p241
aS'C:10677'
p242
aS'C:10678'
p243
asg13
(lp244
S'C:222'
p245
asg18
S'LEU_156_B'
p246
sg20
S'SMY_2_B'
p247
sg22
S'H-H'
p248
sbag4
(g5
g6
Ntp249
Rp250
(dp251
g10
(lp252
S'N:10673'
p253
aS'C:10674'
p254
aS'N:10675'
p255
aS'C:10676'
p256
aS'C:10677'
p257
aS'C:10678'
p258
asg13
(lp259
S'C:2289'
p260
asg18
S'MET_281_B'
p261
sg20
S'SMY_2_B'
p262
sg22
S'H-H'
p263
sbag4
(g5
g6
Ntp264
Rp265
(dp266
g10
(lp267
S'N:10673'
p268
aS'C:10674'
p269
aS'N:10675'
p270
aS'C:10676'
p271
aS'C:10677'
p272
aS'C:10678'
p273
asg13
(lp274
S'S:2288'
p275
asg18
S'MET_281_B'
p276
sg20
S'SMY_2_B'
p277
sg22
S'H-H'
p278
sbag4
(g5
g6
Ntp279
Rp280
(dp281
g10
(lp282
S'N:10673'
p283
aS'C:10674'
p284
aS'N:10675'
p285
aS'C:10676'
p286
aS'C:10677'
p287
aS'C:10678'
p288
asg13
(lp289
S'C:2287'
p290
asg18
S'MET_281_B'
p291
sg20
S'SMY_2_B'
p292
sg22
S'H-H'
p293
sbag4
(g5
g6
Ntp294
Rp295
(dp296
g10
(lp297
S'N:10683'
p298
aS'C:10684'
p299
aS'C:10685'
p300
aS'N:10686'
p301
aS'C:10687'
p302
aS'C:10688'
p303
asg13
(lp304
S'C:340'
p305
aS'C:341'
p306
aS'C:342'
p307
asg18
S'VAL_164_B'
p308
sg20
S'SMY_2_B'
p309
sg22
S'H-H'
p310
sbag4
(g5
g6
Ntp311
Rp312
(dp313
g10
(lp314
S'N:10683'
p315
aS'C:10684'
p316
aS'C:10685'
p317
aS'N:10686'
p318
aS'C:10687'
p319
aS'C:10688'
p320
asg13
(lp321
S'C:222'
p322
asg18
S'LEU_156_B'
p323
sg20
S'SMY_2_B'
p324
sg22
S'H-H'
p325
sbag4
(g5
g6
Ntp326
Rp327
(dp328
g10
(lp329
S'N:10683'
p330
aS'C:10684'
p331
aS'C:10685'
p332
aS'N:10686'
p333
aS'C:10687'
p334
aS'C:10688'
p335
asg13
(lp336
S'C:2289'
p337
asg18
S'MET_281_B'
p338
sg20
S'SMY_2_B'
p339
sg22
S'H-H'
p340
sbag4
(g5
g6
Ntp341
Rp342
(dp343
g10
(lp344
S'N:10683'
p345
aS'C:10684'
p346
aS'C:10685'
p347
aS'N:10686'
p348
aS'C:10687'
p349
aS'C:10688'
p350
asg13
(lp351
S'S:2288'
p352
asg18
S'MET_281_B'
p353
sg20
S'SMY_2_B'
p354
sg22
S'H-H'
p355
sbag4
(g5
g6
Ntp356
Rp357
(dp358
g10
(lp359
S'C:10696'
p360
aS'C:10697'
p361
aS'C:10698'
p362
aS'C:10699'
p363
aS'C:10700'
p364
aS'C:10701'
p365
asg13
(lp366
S'C:340'
p367
aS'C:341'
p368
aS'C:342'
p369
asg18
S'VAL_164_B'
p370
sg20
S'SMY_2_B'
p371
sg22
S'H-H'
p372
sbag4
(g5
g6
Ntp373
Rp374
(dp375
g10
(lp376
S'C:10696'
p377
aS'C:10697'
p378
aS'C:10698'
p379
aS'C:10699'
p380
aS'C:10700'
p381
aS'C:10701'
p382
asg13
(lp383
S'C:291'
p384
asg18
S'PHE_161_B'
p385
sg20
S'SMY_2_B'
p386
sg22
S'H-H'
p387
sbag4
(g5
g6
Ntp388
Rp389
(dp390
g10
(lp391
S'C:10696'
p392
aS'C:10697'
p393
aS'C:10698'
p394
aS'C:10699'
p395
aS'C:10700'
p396
aS'C:10701'
p397
asg13
(lp398
S'C:594'
p399
asg18
S'LYS_179_B'
p400
sg20
S'SMY_2_B'
p401
sg22
S'H-H'
p402
sbag4
(g5
g6
Ntp403
Rp404
(dp405
g10
(lp406
S'C:10682'
p407
asg13
(lp408
S'C:340'
p409
aS'C:341'
p410
aS'C:342'
p411
asg18
S'VAL_164_B'
p412
sg20
S'SMY_2_B'
p413
sg22
S'H-H'
p414
sbag4
(g5
g6
Ntp415
Rp416
(dp417
g10
(lp418
S'C:10682'
p419
asg13
(lp420
S'C:563'
p421
aS'C:566'
p422
asg18
S'ALA_177_B'
p423
sg20
S'SMY_2_B'
p424
sg22
S'H-H'
p425
sbag4
(g5
g6
Ntp426
Rp427
(dp428
g10
(lp429
S'C:10682'
p430
asg13
(lp431
S'C:594'
p432
asg18
S'LYS_179_B'
p433
sg20
S'SMY_2_B'
p434
sg22
S'H-H'
p435
sbag4
(g5
g6
Ntp436
Rp437
(dp438
g10
(lp439
S'C:10682'
p440
asg13
(lp441
S'C:593'
p442
asg18
S'LYS_179_B'
p443
sg20
S'SMY_2_B'
p444
sg22
S'H-H'
p445
sbag4
(g5
g6
Ntp446
Rp447
(dp448
g10
(lp449
S'C:10682'
p450
asg13
(lp451
S'C:1406'
p452
asg18
S'MET_227_B'
p453
sg20
S'SMY_2_B'
p454
sg22
S'H-H'
p455
sbag4
(g5
g6
Ntp456
Rp457
(dp458
g10
(lp459
S'C:10682'
p460
asg13
(lp461
S'S:1405'
p462
asg18
S'MET_227_B'
p463
sg20
S'SMY_2_B'
p464
sg22
S'H-H'
p465
sbag4
(g5
g6
Ntp466
Rp467
(dp468
g10
(lp469
S'C:10682'
p470
asg13
(lp471
S'C:1403'
p472
asg18
S'MET_227_B'
p473
sg20
S'SMY_2_B'
p474
sg22
S'H-H'
p475
sbag4
(g5
g6
Ntp476
Rp477
(dp478
g10
(lp479
S'C:10682'
p480
asg13
(lp481
S'S:2288'
p482
asg18
S'MET_281_B'
p483
sg20
S'SMY_2_B'
p484
sg22
S'H-H'
p485
sbasS'HBD-HBA'
p486
(lp487
g4
(g5
g6
Ntp488
Rp489
(dp490
g10
(lp491
S'N:10702'
p492
asg13
(lp493
S'O:1498'
p494
asg18
S'GLU_234_B'
p495
sg20
S'SMY_2_B'
p496
sg22
g486
sbag4
(g5
g6
Ntp497
Rp498
(dp499
g10
(lp500
S'N:10702'
p501
asg13
(lp502
S'N:10570'
p503
asg18
S'ARG_4_D'
p504
sg20
S'SMY_2_B'
p505
sg22
S'HBD-HBA'
p506
sbag4
(g5
g6
Ntp507
Rp508
(dp509
g10
(lp510
S'N:10702'
p511
asg13
(lp512
S'N:10573'
p513
asg18
S'ARG_4_D'
p514
sg20
S'SMY_2_B'
p515
sg22
S'HBD-HBA'
p516
sbasS'HBA-HBD'
p517
(lp518
g4
(g5
g6
Ntp519
Rp520
(dp521
g10
(lp522
S'N:10675'
p523
asg13
(lp524
S'N:1452'
p525
aS'H:1457'
p526
asg18
S'ALA_230_B'
p527
sg20
S'SMY_2_B'
p528
sg22
g517
sbass.