(dp0
I0
(dp1
S'PI-NI'
p2
(lp3
ccopy_reg
_reconstructor
p4
(c__main__
Ph4InteractionInformation
p5
c__builtin__
object
p6
Ntp7
Rp8
(dp9
S'lig_atom'
p10
(lp11
S'N:10702'
p12
asS'env_atom'
p13
(lp14
S'C:1496'
p15
aS'O:1497'
p16
aS'O:1498'
p17
asS'env_residue'
p18
S'GLU_234_A'
p19
sS'lig_residue'
p20
S'SMY_1_A'
p21
sS'interaction_type'
p22
g2
sbasS'H-H'
p23
(lp24
g4
(g5
g6
Ntp25
Rp26
(dp27
g10
(lp28
S'C:10676'
p29
aS'C:10677'
p30
aS'C:10679'
p31
aS'S:10680'
p32
aS'C:10681'
p33
asg13
(lp34
S'C:340'
p35
aS'C:341'
p36
aS'C:342'
p37
asg18
S'VAL_164_A'
p38
sg20
S'SMY_1_A'
p39
sg22
g23
sbag4
(g5
g6
Ntp40
Rp41
(dp42
g10
(lp43
S'C:10676'
p44
aS'C:10677'
p45
aS'C:10679'
p46
aS'S:10680'
p47
aS'C:10681'
p48
asg13
(lp49
S'C:563'
p50
aS'C:566'
p51
asg18
S'ALA_177_A'
p52
sg20
S'SMY_1_A'
p53
sg22
S'H-H'
p54
sbag4
(g5
g6
Ntp55
Rp56
(dp57
g10
(lp58
S'C:10676'
p59
aS'C:10677'
p60
aS'C:10679'
p61
aS'S:10680'
p62
aS'C:10681'
p63
asg13
(lp64
S'C:1453'
p65
aS'C:1456'
p66
asg18
S'ALA_230_A'
p67
sg20
S'SMY_1_A'
p68
sg22
S'H-H'
p69
sbag4
(g5
g6
Ntp70
Rp71
(dp72
g10
(lp73
S'C:10676'
p74
aS'C:10677'
p75
aS'C:10679'
p76
aS'S:10680'
p77
aS'C:10681'
p78
asg13
(lp79
S'C:1406'
p80
asg18
S'MET_227_A'
p81
sg20
S'SMY_1_A'
p82
sg22
S'H-H'
p83
sbag4
(g5
g6
Ntp84
Rp85
(dp86
g10
(lp87
S'C:10676'
p88
aS'C:10677'
p89
aS'C:10679'
p90
aS'S:10680'
p91
aS'C:10681'
p92
asg13
(lp93
S'S:1405'
p94
asg18
S'MET_227_A'
p95
sg20
S'SMY_1_A'
p96
sg22
S'H-H'
p97
sbag4
(g5
g6
Ntp98
Rp99
(dp100
g10
(lp101
S'C:10676'
p102
aS'C:10677'
p103
aS'C:10679'
p104
aS'S:10680'
p105
aS'C:10681'
p106
asg13
(lp107
S'C:1403'
p108
asg18
S'MET_227_A'
p109
sg20
S'SMY_1_A'
p110
sg22
S'H-H'
p111
sbag4
(g5
g6
Ntp112
Rp113
(dp114
g10
(lp115
S'C:10676'
p116
aS'C:10677'
p117
aS'C:10679'
p118
aS'S:10680'
p119
aS'C:10681'
p120
asg13
(lp121
S'C:2289'
p122
asg18
S'MET_281_A'
p123
sg20
S'SMY_1_A'
p124
sg22
S'H-H'
p125
sbag4
(g5
g6
Ntp126
Rp127
(dp128
g10
(lp129
S'C:10676'
p130
aS'C:10677'
p131
aS'C:10679'
p132
aS'S:10680'
p133
aS'C:10681'
p134
asg13
(lp135
S'S:2288'
p136
asg18
S'MET_281_A'
p137
sg20
S'SMY_1_A'
p138
sg22
S'H-H'
p139
sbag4
(g5
g6
Ntp140
Rp141
(dp142
g10
(lp143
S'C:10676'
p144
aS'C:10677'
p145
aS'C:10679'
p146
aS'S:10680'
p147
aS'C:10681'
p148
asg13
(lp149
S'C:2287'
p150
asg18
S'MET_281_A'
p151
sg20
S'SMY_1_A'
p152
sg22
S'H-H'
p153
sbag4
(g5
g6
Ntp154
Rp155
(dp156
g10
(lp157
S'C:10693'
p158
aS'C:10694'
p159
aS'N:10695'
p160
aS'C:10696'
p161
aS'C:10697'
p162
asg13
(lp163
S'C:594'
p164
asg18
S'LYS_179_A'
p165
sg20
S'SMY_1_A'
p166
sg22
S'H-H'
p167
sbag4
(g5
g6
Ntp168
Rp169
(dp170
g10
(lp171
S'N:10673'
p172
aS'C:10674'
p173
aS'N:10675'
p174
aS'C:10676'
p175
aS'C:10677'
p176
aS'C:10678'
p177
asg13
(lp178
S'C:4806'
p179
aS'C:4807'
p180
aS'C:4808'
p181
aS'C:4809'
p182
aS'C:4810'
p183
aS'C:4811'
p184
asg18
S'PHE_438_A'
p185
sg20
S'SMY_1_A'
p186
sg22
S'H-H'
p187
sbag4
(g5
g6
Ntp188
Rp189
(dp190
g10
(lp191
S'N:10673'
p192
aS'C:10674'
p193
aS'N:10675'
p194
aS'C:10676'
p195
aS'C:10677'
p196
aS'C:10678'
p197
asg13
(lp198
S'C:340'
p199
aS'C:341'
p200
aS'C:342'
p201
asg18
S'VAL_164_A'
p202
sg20
S'SMY_1_A'
p203
sg22
S'H-H'
p204
sbag4
(g5
g6
Ntp205
Rp206
(dp207
g10
(lp208
S'N:10673'
p209
aS'C:10674'
p210
aS'N:10675'
p211
aS'C:10676'
p212
aS'C:10677'
p213
aS'C:10678'
p214
asg13
(lp215
S'C:563'
p216
aS'C:566'
p217
asg18
S'ALA_177_A'
p218
sg20
S'SMY_1_A'
p219
sg22
S'H-H'
p220
sbag4
(g5
g6
Ntp221
Rp222
(dp223
g10
(lp224
S'N:10673'
p225
aS'C:10674'
p226
aS'N:10675'
p227
aS'C:10676'
p228
aS'C:10677'
p229
aS'C:10678'
p230
asg13
(lp231
S'C:1453'
p232
aS'C:1456'
p233
asg18
S'ALA_230_A'
p234
sg20
S'SMY_1_A'
p235
sg22
S'H-H'
p236
sbag4
(g5
g6
Ntp237
Rp238
(dp239
g10
(lp240
S'N:10673'
p241
aS'C:10674'
p242
aS'N:10675'
p243
aS'C:10676'
p244
aS'C:10677'
p245
aS'C:10678'
p246
asg13
(lp247
S'C:2289'
p248
asg18
S'MET_281_A'
p249
sg20
S'SMY_1_A'
p250
sg22
S'H-H'
p251
sbag4
(g5
g6
Ntp252
Rp253
(dp254
g10
(lp255
S'N:10673'
p256
aS'C:10674'
p257
aS'N:10675'
p258
aS'C:10676'
p259
aS'C:10677'
p260
aS'C:10678'
p261
asg13
(lp262
S'S:2288'
p263
asg18
S'MET_281_A'
p264
sg20
S'SMY_1_A'
p265
sg22
S'H-H'
p266
sbag4
(g5
g6
Ntp267
Rp268
(dp269
g10
(lp270
S'N:10673'
p271
aS'C:10674'
p272
aS'N:10675'
p273
aS'C:10676'
p274
aS'C:10677'
p275
aS'C:10678'
p276
asg13
(lp277
S'C:2287'
p278
asg18
S'MET_281_A'
p279
sg20
S'SMY_1_A'
p280
sg22
S'H-H'
p281
sbag4
(g5
g6
Ntp282
Rp283
(dp284
g10
(lp285
S'N:10683'
p286
aS'C:10684'
p287
aS'C:10685'
p288
aS'N:10686'
p289
aS'C:10687'
p290
aS'C:10688'
p291
asg13
(lp292
S'C:340'
p293
aS'C:341'
p294
aS'C:342'
p295
asg18
S'VAL_164_A'
p296
sg20
S'SMY_1_A'
p297
sg22
S'H-H'
p298
sbag4
(g5
g6
Ntp299
Rp300
(dp301
g10
(lp302
S'N:10683'
p303
aS'C:10684'
p304
aS'C:10685'
p305
aS'N:10686'
p306
aS'C:10687'
p307
aS'C:10688'
p308
asg13
(lp309
S'C:222'
p310
asg18
S'LEU_156_A'
p311
sg20
S'SMY_1_A'
p312
sg22
S'H-H'
p313
sbag4
(g5
g6
Ntp314
Rp315
(dp316
g10
(lp317
S'N:10683'
p318
aS'C:10684'
p319
aS'C:10685'
p320
aS'N:10686'
p321
aS'C:10687'
p322
aS'C:10688'
p323
asg13
(lp324
S'C:2289'
p325
asg18
S'MET_281_A'
p326
sg20
S'SMY_1_A'
p327
sg22
S'H-H'
p328
sbag4
(g5
g6
Ntp329
Rp330
(dp331
g10
(lp332
S'N:10683'
p333
aS'C:10684'
p334
aS'C:10685'
p335
aS'N:10686'
p336
aS'C:10687'
p337
aS'C:10688'
p338
asg13
(lp339
S'S:2288'
p340
asg18
S'MET_281_A'
p341
sg20
S'SMY_1_A'
p342
sg22
S'H-H'
p343
sbag4
(g5
g6
Ntp344
Rp345
(dp346
g10
(lp347
S'C:10696'
p348
aS'C:10697'
p349
aS'C:10698'
p350
aS'C:10699'
p351
aS'C:10700'
p352
aS'C:10701'
p353
asg13
(lp354
S'C:340'
p355
aS'C:341'
p356
aS'C:342'
p357
asg18
S'VAL_164_A'
p358
sg20
S'SMY_1_A'
p359
sg22
S'H-H'
p360
sbag4
(g5
g6
Ntp361
Rp362
(dp363
g10
(lp364
S'C:10696'
p365
aS'C:10697'
p366
aS'C:10698'
p367
aS'C:10699'
p368
aS'C:10700'
p369
aS'C:10701'
p370
asg13
(lp371
S'C:594'
p372
asg18
S'LYS_179_A'
p373
sg20
S'SMY_1_A'
p374
sg22
S'H-H'
p375
sbag4
(g5
g6
Ntp376
Rp377
(dp378
g10
(lp379
S'C:10682'
p380
asg13
(lp381
S'C:340'
p382
aS'C:341'
p383
aS'C:342'
p384
asg18
S'VAL_164_A'
p385
sg20
S'SMY_1_A'
p386
sg22
S'H-H'
p387
sbag4
(g5
g6
Ntp388
Rp389
(dp390
g10
(lp391
S'C:10682'
p392
asg13
(lp393
S'C:563'
p394
aS'C:566'
p395
asg18
S'ALA_177_A'
p396
sg20
S'SMY_1_A'
p397
sg22
S'H-H'
p398
sbag4
(g5
g6
Ntp399
Rp400
(dp401
g10
(lp402
S'C:10682'
p403
asg13
(lp404
S'C:594'
p405
asg18
S'LYS_179_A'
p406
sg20
S'SMY_1_A'
p407
sg22
S'H-H'
p408
sbag4
(g5
g6
Ntp409
Rp410
(dp411
g10
(lp412
S'C:10682'
p413
asg13
(lp414
S'C:593'
p415
asg18
S'LYS_179_A'
p416
sg20
S'SMY_1_A'
p417
sg22
S'H-H'
p418
sbag4
(g5
g6
Ntp419
Rp420
(dp421
g10
(lp422
S'C:10682'
p423
asg13
(lp424
S'C:1406'
p425
asg18
S'MET_227_A'
p426
sg20
S'SMY_1_A'
p427
sg22
S'H-H'
p428
sbag4
(g5
g6
Ntp429
Rp430
(dp431
g10
(lp432
S'C:10682'
p433
asg13
(lp434
S'S:1405'
p435
asg18
S'MET_227_A'
p436
sg20
S'SMY_1_A'
p437
sg22
S'H-H'
p438
sbag4
(g5
g6
Ntp439
Rp440
(dp441
g10
(lp442
S'C:10682'
p443
asg13
(lp444
S'C:1403'
p445
asg18
S'MET_227_A'
p446
sg20
S'SMY_1_A'
p447
sg22
S'H-H'
p448
sbag4
(g5
g6
Ntp449
Rp450
(dp451
g10
(lp452
S'C:10682'
p453
asg13
(lp454
S'S:2288'
p455
asg18
S'MET_281_A'
p456
sg20
S'SMY_1_A'
p457
sg22
S'H-H'
p458
sbasS'HBD-HBA'
p459
(lp460
g4
(g5
g6
Ntp461
Rp462
(dp463
g10
(lp464
S'N:10702'
p465
asg13
(lp466
S'O:1498'
p467
asg18
S'GLU_234_A'
p468
sg20
S'SMY_1_A'
p469
sg22
g459
sbag4
(g5
g6
Ntp470
Rp471
(dp472
g10
(lp473
S'N:10702'
p474
asg13
(lp475
S'N:10416'
p476
asg18
S'ARG_4_C'
p477
sg20
S'SMY_1_A'
p478
sg22
S'HBD-HBA'
p479
sbasS'HBA-HBD'
p480
(lp481
g4
(g5
g6
Ntp482
Rp483
(dp484
g10
(lp485
S'N:10675'
p486
asg13
(lp487
S'N:1452'
p488
aS'H:1457'
p489
asg18
S'ALA_230_A'
p490
sg20
S'SMY_1_A'
p491
sg22
g480
sbag4
(g5
g6
Ntp492
Rp493
(dp494
g10
(lp495
S'S:10680'
p496
asg13
(lp497
S'O:2453'
p498
asg18
S'THR_291_A'
p499
sg20
S'SMY_1_A'
p500
sg22
S'HBA-HBD'
p501
sbass.