(dp0
I0
(dp1
S'PI-NI'
p2
(lp3
ccopy_reg
_reconstructor
p4
(c__main__
Ph4InteractionInformation
p5
c__builtin__
object
p6
Ntp7
Rp8
(dp9
S'lig_atom'
p10
(lp11
S'N:5375'
p12
asS'env_atom'
p13
(lp14
S'C:2467'
p15
aS'O:2468'
p16
aS'O:2469'
p17
asS'env_residue'
p18
S'ASP_292_A'
p19
sS'lig_residue'
p20
S'SMR_1_A'
p21
sS'interaction_type'
p22
g2
sbasS'H-H'
p23
(lp24
g4
(g5
g6
Ntp25
Rp26
(dp27
g10
(lp28
S'C:5349'
p29
aS'C:5350'
p30
aS'N:5351'
p31
aS'N:5352'
p32
aS'C:5353'
p33
asg13
(lp34
S'C:223'
p35
aS'C:224'
p36
aS'C:225'
p37
asg18
S'LEU_156_A'
p38
sg20
S'SMR_1_A'
p39
sg22
g23
sbag4
(g5
g6
Ntp40
Rp41
(dp42
g10
(lp43
S'C:5349'
p44
aS'C:5350'
p45
aS'N:5351'
p46
aS'N:5352'
p47
aS'C:5353'
p48
asg13
(lp49
S'C:340'
p50
aS'C:341'
p51
aS'C:342'
p52
asg18
S'VAL_164_A'
p53
sg20
S'SMR_1_A'
p54
sg22
S'H-H'
p55
sbag4
(g5
g6
Ntp56
Rp57
(dp58
g10
(lp59
S'C:5349'
p60
aS'C:5350'
p61
aS'N:5351'
p62
aS'N:5352'
p63
aS'C:5353'
p64
asg13
(lp65
S'C:563'
p66
aS'C:566'
p67
asg18
S'ALA_177_A'
p68
sg20
S'SMR_1_A'
p69
sg22
S'H-H'
p70
sbag4
(g5
g6
Ntp71
Rp72
(dp73
g10
(lp74
S'C:5349'
p75
aS'C:5350'
p76
aS'N:5351'
p77
aS'N:5352'
p78
aS'C:5353'
p79
asg13
(lp80
S'C:1453'
p81
aS'C:1456'
p82
asg18
S'ALA_230_A'
p83
sg20
S'SMR_1_A'
p84
sg22
S'H-H'
p85
sbag4
(g5
g6
Ntp86
Rp87
(dp88
g10
(lp89
S'C:5349'
p90
aS'C:5350'
p91
aS'N:5351'
p92
aS'N:5352'
p93
aS'C:5353'
p94
asg13
(lp95
S'C:222'
p96
asg18
S'LEU_156_A'
p97
sg20
S'SMR_1_A'
p98
sg22
S'H-H'
p99
sbag4
(g5
g6
Ntp100
Rp101
(dp102
g10
(lp103
S'C:5349'
p104
aS'C:5350'
p105
aS'N:5351'
p106
aS'N:5352'
p107
aS'C:5353'
p108
asg13
(lp109
S'C:1406'
p110
asg18
S'MET_227_A'
p111
sg20
S'SMR_1_A'
p112
sg22
S'H-H'
p113
sbag4
(g5
g6
Ntp114
Rp115
(dp116
g10
(lp117
S'C:5349'
p118
aS'C:5350'
p119
aS'N:5351'
p120
aS'N:5352'
p121
aS'C:5353'
p122
asg13
(lp123
S'C:2289'
p124
asg18
S'MET_281_A'
p125
sg20
S'SMR_1_A'
p126
sg22
S'H-H'
p127
sbag4
(g5
g6
Ntp128
Rp129
(dp130
g10
(lp131
S'C:5349'
p132
aS'C:5350'
p133
aS'N:5351'
p134
aS'N:5352'
p135
aS'C:5353'
p136
asg13
(lp137
S'S:2288'
p138
asg18
S'MET_281_A'
p139
sg20
S'SMR_1_A'
p140
sg22
S'H-H'
p141
sbag4
(g5
g6
Ntp142
Rp143
(dp144
g10
(lp145
S'C:5349'
p146
aS'C:5350'
p147
aS'N:5351'
p148
aS'N:5352'
p149
aS'C:5353'
p150
asg13
(lp151
S'C:2287'
p152
asg18
S'MET_281_A'
p153
sg20
S'SMR_1_A'
p154
sg22
S'H-H'
p155
sbag4
(g5
g6
Ntp156
Rp157
(dp158
g10
(lp159
S'C:5349'
p160
aS'C:5350'
p161
aS'N:5351'
p162
aS'N:5352'
p163
aS'C:5353'
p164
asg13
(lp165
S'C:2286'
p166
asg18
S'MET_281_A'
p167
sg20
S'SMR_1_A'
p168
sg22
S'H-H'
p169
sbag4
(g5
g6
Ntp170
Rp171
(dp172
g10
(lp173
S'C:5337'
p174
aS'C:5338'
p175
aS'C:5339'
p176
aS'C:5340'
p177
aS'C:5341'
p178
aS'N:5375'
p179
asg13
(lp180
S'C:340'
p181
aS'C:341'
p182
aS'C:342'
p183
asg18
S'VAL_164_A'
p184
sg20
S'SMR_1_A'
p185
sg22
S'H-H'
p186
sbag4
(g5
g6
Ntp187
Rp188
(dp189
g10
(lp190
S'C:5337'
p191
aS'C:5338'
p192
aS'C:5339'
p193
aS'C:5340'
p194
aS'C:5341'
p195
aS'N:5375'
p196
asg13
(lp197
S'C:2289'
p198
asg18
S'MET_281_A'
p199
sg20
S'SMR_1_A'
p200
sg22
S'H-H'
p201
sbag4
(g5
g6
Ntp202
Rp203
(dp204
g10
(lp205
S'C:5337'
p206
aS'C:5338'
p207
aS'C:5339'
p208
aS'C:5340'
p209
aS'C:5341'
p210
aS'N:5375'
p211
asg13
(lp212
S'S:2288'
p213
asg18
S'MET_281_A'
p214
sg20
S'SMR_1_A'
p215
sg22
S'H-H'
p216
sbag4
(g5
g6
Ntp217
Rp218
(dp219
g10
(lp220
S'C:5337'
p221
aS'C:5338'
p222
aS'C:5339'
p223
aS'C:5340'
p224
aS'C:5341'
p225
aS'N:5375'
p226
asg13
(lp227
S'C:2287'
p228
asg18
S'MET_281_A'
p229
sg20
S'SMR_1_A'
p230
sg22
S'H-H'
p231
sbag4
(g5
g6
Ntp232
Rp233
(dp234
g10
(lp235
S'C:5337'
p236
aS'O:5342'
p237
aS'C:5343'
p238
aS'C:5344'
p239
aS'C:5345'
p240
aS'C:5346'
p241
asg13
(lp242
S'C:340'
p243
aS'C:341'
p244
aS'C:342'
p245
asg18
S'VAL_164_A'
p246
sg20
S'SMR_1_A'
p247
sg22
S'H-H'
p248
sbag4
(g5
g6
Ntp249
Rp250
(dp251
g10
(lp252
S'C:5337'
p253
aS'O:5342'
p254
aS'C:5343'
p255
aS'C:5344'
p256
aS'C:5345'
p257
aS'C:5346'
p258
asg13
(lp259
S'C:563'
p260
aS'C:566'
p261
asg18
S'ALA_177_A'
p262
sg20
S'SMR_1_A'
p263
sg22
S'H-H'
p264
sbag4
(g5
g6
Ntp265
Rp266
(dp267
g10
(lp268
S'C:5337'
p269
aS'O:5342'
p270
aS'C:5343'
p271
aS'C:5344'
p272
aS'C:5345'
p273
aS'C:5346'
p274
asg13
(lp275
S'C:222'
p276
asg18
S'LEU_156_A'
p277
sg20
S'SMR_1_A'
p278
sg22
S'H-H'
p279
sbag4
(g5
g6
Ntp280
Rp281
(dp282
g10
(lp283
S'C:5337'
p284
aS'O:5342'
p285
aS'C:5343'
p286
aS'C:5344'
p287
aS'C:5345'
p288
aS'C:5346'
p289
asg13
(lp290
S'C:1406'
p291
asg18
S'MET_227_A'
p292
sg20
S'SMR_1_A'
p293
sg22
S'H-H'
p294
sbag4
(g5
g6
Ntp295
Rp296
(dp297
g10
(lp298
S'C:5337'
p299
aS'O:5342'
p300
aS'C:5343'
p301
aS'C:5344'
p302
aS'C:5345'
p303
aS'C:5346'
p304
asg13
(lp305
S'C:2289'
p306
asg18
S'MET_281_A'
p307
sg20
S'SMR_1_A'
p308
sg22
S'H-H'
p309
sbag4
(g5
g6
Ntp310
Rp311
(dp312
g10
(lp313
S'C:5337'
p314
aS'O:5342'
p315
aS'C:5343'
p316
aS'C:5344'
p317
aS'C:5345'
p318
aS'C:5346'
p319
asg13
(lp320
S'S:2288'
p321
asg18
S'MET_281_A'
p322
sg20
S'SMR_1_A'
p323
sg22
S'H-H'
p324
sbag4
(g5
g6
Ntp325
Rp326
(dp327
g10
(lp328
S'C:5337'
p329
aS'O:5342'
p330
aS'C:5343'
p331
aS'C:5344'
p332
aS'C:5345'
p333
aS'C:5346'
p334
asg13
(lp335
S'C:2287'
p336
asg18
S'MET_281_A'
p337
sg20
S'SMR_1_A'
p338
sg22
S'H-H'
p339
sbag4
(g5
g6
Ntp340
Rp341
(dp342
g10
(lp343
S'C:5343'
p344
aS'C:5344'
p345
aS'C:5347'
p346
aS'C:5348'
p347
aS'C:5349'
p348
aS'C:5350'
p349
asg13
(lp350
S'C:340'
p351
aS'C:341'
p352
aS'C:342'
p353
asg18
S'VAL_164_A'
p354
sg20
S'SMR_1_A'
p355
sg22
S'H-H'
p356
sbag4
(g5
g6
Ntp357
Rp358
(dp359
g10
(lp360
S'C:5343'
p361
aS'C:5344'
p362
aS'C:5347'
p363
aS'C:5348'
p364
aS'C:5349'
p365
aS'C:5350'
p366
asg13
(lp367
S'C:563'
p368
aS'C:566'
p369
asg18
S'ALA_177_A'
p370
sg20
S'SMR_1_A'
p371
sg22
S'H-H'
p372
sbag4
(g5
g6
Ntp373
Rp374
(dp375
g10
(lp376
S'C:5343'
p377
aS'C:5344'
p378
aS'C:5347'
p379
aS'C:5348'
p380
aS'C:5349'
p381
aS'C:5350'
p382
asg13
(lp383
S'C:1406'
p384
asg18
S'MET_227_A'
p385
sg20
S'SMR_1_A'
p386
sg22
S'H-H'
p387
sbag4
(g5
g6
Ntp388
Rp389
(dp390
g10
(lp391
S'C:5343'
p392
aS'C:5344'
p393
aS'C:5347'
p394
aS'C:5348'
p395
aS'C:5349'
p396
aS'C:5350'
p397
asg13
(lp398
S'S:1405'
p399
asg18
S'MET_227_A'
p400
sg20
S'SMR_1_A'
p401
sg22
S'H-H'
p402
sbag4
(g5
g6
Ntp403
Rp404
(dp405
g10
(lp406
S'C:5343'
p407
aS'C:5344'
p408
aS'C:5347'
p409
aS'C:5348'
p410
aS'C:5349'
p411
aS'C:5350'
p412
asg13
(lp413
S'C:2289'
p414
asg18
S'MET_281_A'
p415
sg20
S'SMR_1_A'
p416
sg22
S'H-H'
p417
sbag4
(g5
g6
Ntp418
Rp419
(dp420
g10
(lp421
S'C:5343'
p422
aS'C:5344'
p423
aS'C:5347'
p424
aS'C:5348'
p425
aS'C:5349'
p426
aS'C:5350'
p427
asg13
(lp428
S'S:2288'
p429
asg18
S'MET_281_A'
p430
sg20
S'SMR_1_A'
p431
sg22
S'H-H'
p432
sbag4
(g5
g6
Ntp433
Rp434
(dp435
g10
(lp436
S'C:5343'
p437
aS'C:5344'
p438
aS'C:5347'
p439
aS'C:5348'
p440
aS'C:5349'
p441
aS'C:5350'
p442
asg13
(lp443
S'C:2287'
p444
asg18
S'MET_281_A'
p445
sg20
S'SMR_1_A'
p446
sg22
S'H-H'
p447
sbag4
(g5
g6
Ntp448
Rp449
(dp450
g10
(lp451
S'C:5361'
p452
aS'C:5362'
p453
aS'C:5363'
p454
aS'C:5364'
p455
aS'C:5365'
p456
aS'C:5366'
p457
asg13
(lp458
S'C:340'
p459
aS'C:341'
p460
aS'C:342'
p461
asg18
S'VAL_164_A'
p462
sg20
S'SMR_1_A'
p463
sg22
S'H-H'
p464
sbag4
(g5
g6
Ntp465
Rp466
(dp467
g10
(lp468
S'C:5361'
p469
aS'C:5362'
p470
aS'C:5363'
p471
aS'C:5364'
p472
aS'C:5365'
p473
aS'C:5366'
p474
asg13
(lp475
S'C:248'
p476
asg18
S'LYS_158_A'
p477
sg20
S'SMR_1_A'
p478
sg22
S'H-H'
p479
sbag4
(g5
g6
Ntp480
Rp481
(dp482
g10
(lp483
S'C:5361'
p484
aS'C:5362'
p485
aS'C:5363'
p486
aS'C:5364'
p487
aS'C:5365'
p488
aS'C:5366'
p489
asg13
(lp490
S'C:318'
p491
asg18
S'LYS_163_A'
p492
sg20
S'SMR_1_A'
p493
sg22
S'H-H'
p494
sbag4
(g5
g6
Ntp495
Rp496
(dp497
g10
(lp498
S'C:5359'
p499
aS'C:5360'
p500
asg13
(lp501
S'C:292'
p502
aS'C:293'
p503
aS'C:294'
p504
aS'C:295'
p505
aS'C:296'
p506
aS'C:297'
p507
asg18
S'PHE_161_A'
p508
sg20
S'SMR_1_A'
p509
sg22
S'H-H'
p510
sbag4
(g5
g6
Ntp511
Rp512
(dp513
g10
(lp514
S'C:5359'
p515
aS'C:5360'
p516
asg13
(lp517
S'C:635'
p518
aS'C:636'
p519
aS'C:637'
p520
asg18
S'LEU_181_A'
p521
sg20
S'SMR_1_A'
p522
sg22
S'H-H'
p523
sbag4
(g5
g6
Ntp524
Rp525
(dp526
g10
(lp527
S'C:5359'
p528
aS'C:5360'
p529
asg13
(lp530
S'C:291'
p531
asg18
S'PHE_161_A'
p532
sg20
S'SMR_1_A'
p533
sg22
S'H-H'
p534
sbag4
(g5
g6
Ntp535
Rp536
(dp537
g10
(lp538
S'C:5367'
p539
asg13
(lp540
S'C:5233'
p541
asg18
S'ARG_4_C'
p542
sg20
S'SMR_1_A'
p543
sg22
S'H-H'
p544
sbag4
(g5
g6
Ntp545
Rp546
(dp547
g10
(lp548
S'C:5368'
p549
asg13
(lp550
S'C:340'
p551
aS'C:341'
p552
aS'C:342'
p553
asg18
S'VAL_164_A'
p554
sg20
S'SMR_1_A'
p555
sg22
S'H-H'
p556
sbag4
(g5
g6
Ntp557
Rp558
(dp559
g10
(lp560
S'C:5368'
p561
asg13
(lp562
S'C:635'
p563
aS'C:636'
p564
aS'C:637'
p565
asg18
S'LEU_181_A'
p566
sg20
S'SMR_1_A'
p567
sg22
S'H-H'
p568
sbag4
(g5
g6
Ntp569
Rp570
(dp571
g10
(lp572
S'C:5368'
p573
asg13
(lp574
S'C:291'
p575
asg18
S'PHE_161_A'
p576
sg20
S'SMR_1_A'
p577
sg22
S'H-H'
p578
sbag4
(g5
g6
Ntp579
Rp580
(dp581
g10
(lp582
S'C:5368'
p583
asg13
(lp584
S'C:318'
p585
asg18
S'LYS_163_A'
p586
sg20
S'SMR_1_A'
p587
sg22
S'H-H'
p588
sbag4
(g5
g6
Ntp589
Rp590
(dp591
g10
(lp592
S'C:5368'
p593
asg13
(lp594
S'C:594'
p595
asg18
S'LYS_179_A'
p596
sg20
S'SMR_1_A'
p597
sg22
S'H-H'
p598
sbag4
(g5
g6
Ntp599
Rp600
(dp601
g10
(lp602
S'C:5368'
p603
asg13
(lp604
S'C:593'
p605
asg18
S'LYS_179_A'
p606
sg20
S'SMR_1_A'
p607
sg22
S'H-H'
p608
sbasS'HBD-HBA'
p609
(lp610
g4
(g5
g6
Ntp611
Rp612
(dp613
g10
(lp614
S'N:5351'
p615
aS'H:5390'
p616
asg13
(lp617
S'O:1419'
p618
asg18
S'GLU_228_A'
p619
sg20
S'SMR_1_A'
p620
sg22
g609
sbag4
(g5
g6
Ntp621
Rp622
(dp623
g10
(lp624
S'O:5357'
p625
asg13
(lp626
S'O:2468'
p627
asg18
S'ASP_292_A'
p628
sg20
S'SMR_1_A'
p629
sg22
S'HBD-HBA'
p630
sbasS'HBA-HBD'
p631
(lp632
g4
(g5
g6
Ntp633
Rp634
(dp635
g10
(lp636
S'N:5352'
p637
asg13
(lp638
S'N:1452'
p639
aS'H:1457'
p640
asg18
S'ALA_230_A'
p641
sg20
S'SMR_1_A'
p642
sg22
g631
sbag4
(g5
g6
Ntp643
Rp644
(dp645
g10
(lp646
S'O:5357'
p647
asg13
(lp648
S'N:597'
p649
asg18
S'LYS_179_A'
p650
sg20
S'SMR_1_A'
p651
sg22
S'HBA-HBD'
p652
sbag4
(g5
g6
Ntp653
Rp654
(dp655
g10
(lp656
S'O:5374'
p657
asg13
(lp658
S'N:287'
p659
aS'H:298'
p660
asg18
S'PHE_161_A'
p661
sg20
S'SMR_1_A'
p662
sg22
S'HBA-HBD'
p663
sbass.