(dp0
I0
(dp1
S'PI-NI'
p2
(lp3
ccopy_reg
_reconstructor
p4
(c__main__
Ph4InteractionInformation
p5
c__builtin__
object
p6
Ntp7
Rp8
(dp9
S'lig_atom'
p10
(lp11
S'N:5378'
p12
asS'env_atom'
p13
(lp14
S'C:2240'
p15
aS'O:2241'
p16
aS'O:2242'
p17
asS'env_residue'
p18
S'GLU_278_A'
p19
sS'lig_residue'
p20
S'SM9_1_A'
p21
sS'interaction_type'
p22
g2
sbag4
(g5
g6
Ntp23
Rp24
(dp25
g10
(lp26
S'N:5378'
p27
asg13
(lp28
S'C:2467'
p29
aS'O:2468'
p30
aS'O:2469'
p31
asg18
S'ASP_292_A'
p32
sg20
S'SM9_1_A'
p33
sg22
S'PI-NI'
p34
sbasS'H-H'
p35
(lp36
g4
(g5
g6
Ntp37
Rp38
(dp39
g10
(lp40
S'C:5374'
p41
aS'C:5380'
p42
aS'C:5381'
p43
aS'N:5382'
p44
aS'C:5383'
p45
asg13
(lp46
S'C:340'
p47
aS'C:341'
p48
aS'C:342'
p49
asg18
S'VAL_164_A'
p50
sg20
S'SM9_1_A'
p51
sg22
g35
sbag4
(g5
g6
Ntp52
Rp53
(dp54
g10
(lp55
S'C:5374'
p56
aS'C:5380'
p57
aS'C:5381'
p58
aS'N:5382'
p59
aS'C:5383'
p60
asg13
(lp61
S'C:222'
p62
asg18
S'LEU_156_A'
p63
sg20
S'SM9_1_A'
p64
sg22
S'H-H'
p65
sbag4
(g5
g6
Ntp66
Rp67
(dp68
g10
(lp69
S'C:5374'
p70
aS'C:5380'
p71
aS'C:5381'
p72
aS'N:5382'
p73
aS'C:5383'
p74
asg13
(lp75
S'C:2289'
p76
asg18
S'MET_281_A'
p77
sg20
S'SM9_1_A'
p78
sg22
S'H-H'
p79
sbag4
(g5
g6
Ntp80
Rp81
(dp82
g10
(lp83
S'C:5374'
p84
aS'C:5380'
p85
aS'C:5381'
p86
aS'N:5382'
p87
aS'C:5383'
p88
asg13
(lp89
S'S:2288'
p90
asg18
S'MET_281_A'
p91
sg20
S'SM9_1_A'
p92
sg22
S'H-H'
p93
sbag4
(g5
g6
Ntp94
Rp95
(dp96
g10
(lp97
S'C:5374'
p98
aS'C:5380'
p99
aS'C:5381'
p100
aS'N:5382'
p101
aS'C:5383'
p102
asg13
(lp103
S'C:2287'
p104
asg18
S'MET_281_A'
p105
sg20
S'SM9_1_A'
p106
sg22
S'H-H'
p107
sbag4
(g5
g6
Ntp108
Rp109
(dp110
g10
(lp111
S'C:5366'
p112
aS'C:5367'
p113
aS'C:5368'
p114
aS'C:5369'
p115
aS'C:5370'
p116
aS'C:5371'
p117
asg13
(lp118
S'C:340'
p119
aS'C:341'
p120
aS'C:342'
p121
asg18
S'VAL_164_A'
p122
sg20
S'SM9_1_A'
p123
sg22
S'H-H'
p124
sbag4
(g5
g6
Ntp125
Rp126
(dp127
g10
(lp128
S'C:5366'
p129
aS'C:5367'
p130
aS'C:5368'
p131
aS'C:5369'
p132
aS'C:5370'
p133
aS'C:5371'
p134
asg13
(lp135
S'C:248'
p136
asg18
S'LYS_158_A'
p137
sg20
S'SM9_1_A'
p138
sg22
S'H-H'
p139
sbag4
(g5
g6
Ntp140
Rp141
(dp142
g10
(lp143
S'C:5366'
p144
aS'C:5367'
p145
aS'C:5368'
p146
aS'C:5369'
p147
aS'C:5370'
p148
aS'C:5371'
p149
asg13
(lp150
S'C:318'
p151
asg18
S'LYS_163_A'
p152
sg20
S'SM9_1_A'
p153
sg22
S'H-H'
p154
sbag4
(g5
g6
Ntp155
Rp156
(dp157
g10
(lp158
S'C:5374'
p159
aS'C:5375'
p160
aS'C:5376'
p161
aS'C:5377'
p162
aS'N:5378'
p163
aS'C:5379'
p164
asg13
(lp165
S'C:2289'
p166
asg18
S'MET_281_A'
p167
sg20
S'SM9_1_A'
p168
sg22
S'H-H'
p169
sbag4
(g5
g6
Ntp170
Rp171
(dp172
g10
(lp173
S'C:5374'
p174
aS'C:5375'
p175
aS'C:5376'
p176
aS'C:5377'
p177
aS'N:5378'
p178
aS'C:5379'
p179
asg13
(lp180
S'S:2288'
p181
asg18
S'MET_281_A'
p182
sg20
S'SM9_1_A'
p183
sg22
S'H-H'
p184
sbag4
(g5
g6
Ntp185
Rp186
(dp187
g10
(lp188
S'C:5374'
p189
aS'C:5375'
p190
aS'C:5376'
p191
aS'C:5377'
p192
aS'N:5378'
p193
aS'C:5379'
p194
asg13
(lp195
S'C:2287'
p196
asg18
S'MET_281_A'
p197
sg20
S'SM9_1_A'
p198
sg22
S'H-H'
p199
sbag4
(g5
g6
Ntp200
Rp201
(dp202
g10
(lp203
S'C:5384'
p204
aS'C:5385'
p205
aS'C:5386'
p206
aS'N:5387'
p207
aS'C:5388'
p208
aS'N:5389'
p209
asg13
(lp210
S'C:223'
p211
aS'C:224'
p212
aS'C:225'
p213
asg18
S'LEU_156_A'
p214
sg20
S'SM9_1_A'
p215
sg22
S'H-H'
p216
sbag4
(g5
g6
Ntp217
Rp218
(dp219
g10
(lp220
S'C:5384'
p221
aS'C:5385'
p222
aS'C:5386'
p223
aS'N:5387'
p224
aS'C:5388'
p225
aS'N:5389'
p226
asg13
(lp227
S'C:340'
p228
aS'C:341'
p229
aS'C:342'
p230
asg18
S'VAL_164_A'
p231
sg20
S'SM9_1_A'
p232
sg22
S'H-H'
p233
sbag4
(g5
g6
Ntp234
Rp235
(dp236
g10
(lp237
S'C:5384'
p238
aS'C:5385'
p239
aS'C:5386'
p240
aS'N:5387'
p241
aS'C:5388'
p242
aS'N:5389'
p243
asg13
(lp244
S'C:563'
p245
aS'C:566'
p246
asg18
S'ALA_177_A'
p247
sg20
S'SM9_1_A'
p248
sg22
S'H-H'
p249
sbag4
(g5
g6
Ntp250
Rp251
(dp252
g10
(lp253
S'C:5384'
p254
aS'C:5385'
p255
aS'C:5386'
p256
aS'N:5387'
p257
aS'C:5388'
p258
aS'N:5389'
p259
asg13
(lp260
S'C:1453'
p261
aS'C:1456'
p262
asg18
S'ALA_230_A'
p263
sg20
S'SM9_1_A'
p264
sg22
S'H-H'
p265
sbag4
(g5
g6
Ntp266
Rp267
(dp268
g10
(lp269
S'C:5384'
p270
aS'C:5385'
p271
aS'C:5386'
p272
aS'N:5387'
p273
aS'C:5388'
p274
aS'N:5389'
p275
asg13
(lp276
S'C:222'
p277
asg18
S'LEU_156_A'
p278
sg20
S'SM9_1_A'
p279
sg22
S'H-H'
p280
sbag4
(g5
g6
Ntp281
Rp282
(dp283
g10
(lp284
S'C:5384'
p285
aS'C:5385'
p286
aS'C:5386'
p287
aS'N:5387'
p288
aS'C:5388'
p289
aS'N:5389'
p290
asg13
(lp291
S'C:2289'
p292
asg18
S'MET_281_A'
p293
sg20
S'SM9_1_A'
p294
sg22
S'H-H'
p295
sbag4
(g5
g6
Ntp296
Rp297
(dp298
g10
(lp299
S'C:5384'
p300
aS'C:5385'
p301
aS'C:5386'
p302
aS'N:5387'
p303
aS'C:5388'
p304
aS'N:5389'
p305
asg13
(lp306
S'S:2288'
p307
asg18
S'MET_281_A'
p308
sg20
S'SM9_1_A'
p309
sg22
S'H-H'
p310
sbag4
(g5
g6
Ntp311
Rp312
(dp313
g10
(lp314
S'C:5384'
p315
aS'C:5385'
p316
aS'C:5386'
p317
aS'N:5387'
p318
aS'C:5388'
p319
aS'N:5389'
p320
asg13
(lp321
S'C:2287'
p322
asg18
S'MET_281_A'
p323
sg20
S'SM9_1_A'
p324
sg22
S'H-H'
p325
sbag4
(g5
g6
Ntp326
Rp327
(dp328
g10
(lp329
S'C:5384'
p330
aS'C:5385'
p331
aS'C:5386'
p332
aS'N:5387'
p333
aS'C:5388'
p334
aS'N:5389'
p335
asg13
(lp336
S'C:2286'
p337
asg18
S'MET_281_A'
p338
sg20
S'SM9_1_A'
p339
sg22
S'H-H'
p340
sbag4
(g5
g6
Ntp341
Rp342
(dp343
g10
(lp344
S'C:5385'
p345
aS'C:5386'
p346
aS'C:5390'
p347
aS'C:5391'
p348
aS'C:5392'
p349
aS'C:5393'
p350
asg13
(lp351
S'C:340'
p352
aS'C:341'
p353
aS'C:342'
p354
asg18
S'VAL_164_A'
p355
sg20
S'SM9_1_A'
p356
sg22
S'H-H'
p357
sbag4
(g5
g6
Ntp358
Rp359
(dp360
g10
(lp361
S'C:5385'
p362
aS'C:5386'
p363
aS'C:5390'
p364
aS'C:5391'
p365
aS'C:5392'
p366
aS'C:5393'
p367
asg13
(lp368
S'C:563'
p369
aS'C:566'
p370
asg18
S'ALA_177_A'
p371
sg20
S'SM9_1_A'
p372
sg22
S'H-H'
p373
sbag4
(g5
g6
Ntp374
Rp375
(dp376
g10
(lp377
S'C:5385'
p378
aS'C:5386'
p379
aS'C:5390'
p380
aS'C:5391'
p381
aS'C:5392'
p382
aS'C:5393'
p383
asg13
(lp384
S'C:1453'
p385
aS'C:1456'
p386
asg18
S'ALA_230_A'
p387
sg20
S'SM9_1_A'
p388
sg22
S'H-H'
p389
sbag4
(g5
g6
Ntp390
Rp391
(dp392
g10
(lp393
S'C:5385'
p394
aS'C:5386'
p395
aS'C:5390'
p396
aS'C:5391'
p397
aS'C:5392'
p398
aS'C:5393'
p399
asg13
(lp400
S'C:1406'
p401
asg18
S'MET_227_A'
p402
sg20
S'SM9_1_A'
p403
sg22
S'H-H'
p404
sbag4
(g5
g6
Ntp405
Rp406
(dp407
g10
(lp408
S'C:5385'
p409
aS'C:5386'
p410
aS'C:5390'
p411
aS'C:5391'
p412
aS'C:5392'
p413
aS'C:5393'
p414
asg13
(lp415
S'S:1405'
p416
asg18
S'MET_227_A'
p417
sg20
S'SM9_1_A'
p418
sg22
S'H-H'
p419
sbag4
(g5
g6
Ntp420
Rp421
(dp422
g10
(lp423
S'C:5385'
p424
aS'C:5386'
p425
aS'C:5390'
p426
aS'C:5391'
p427
aS'C:5392'
p428
aS'C:5393'
p429
asg13
(lp430
S'C:1404'
p431
asg18
S'MET_227_A'
p432
sg20
S'SM9_1_A'
p433
sg22
S'H-H'
p434
sbag4
(g5
g6
Ntp435
Rp436
(dp437
g10
(lp438
S'C:5385'
p439
aS'C:5386'
p440
aS'C:5390'
p441
aS'C:5391'
p442
aS'C:5392'
p443
aS'C:5393'
p444
asg13
(lp445
S'C:1403'
p446
asg18
S'MET_227_A'
p447
sg20
S'SM9_1_A'
p448
sg22
S'H-H'
p449
sbag4
(g5
g6
Ntp450
Rp451
(dp452
g10
(lp453
S'C:5385'
p454
aS'C:5386'
p455
aS'C:5390'
p456
aS'C:5391'
p457
aS'C:5392'
p458
aS'C:5393'
p459
asg13
(lp460
S'C:2289'
p461
asg18
S'MET_281_A'
p462
sg20
S'SM9_1_A'
p463
sg22
S'H-H'
p464
sbag4
(g5
g6
Ntp465
Rp466
(dp467
g10
(lp468
S'C:5385'
p469
aS'C:5386'
p470
aS'C:5390'
p471
aS'C:5391'
p472
aS'C:5392'
p473
aS'C:5393'
p474
asg13
(lp475
S'S:2288'
p476
asg18
S'MET_281_A'
p477
sg20
S'SM9_1_A'
p478
sg22
S'H-H'
p479
sbag4
(g5
g6
Ntp480
Rp481
(dp482
g10
(lp483
S'C:5385'
p484
aS'C:5386'
p485
aS'C:5390'
p486
aS'C:5391'
p487
aS'C:5392'
p488
aS'C:5393'
p489
asg13
(lp490
S'C:2287'
p491
asg18
S'MET_281_A'
p492
sg20
S'SM9_1_A'
p493
sg22
S'H-H'
p494
sbag4
(g5
g6
Ntp495
Rp496
(dp497
g10
(lp498
S'C:5364'
p499
aS'C:5365'
p500
asg13
(lp501
S'C:292'
p502
aS'C:293'
p503
aS'C:294'
p504
aS'C:295'
p505
aS'C:296'
p506
aS'C:297'
p507
asg18
S'PHE_161_A'
p508
sg20
S'SM9_1_A'
p509
sg22
S'H-H'
p510
sbag4
(g5
g6
Ntp511
Rp512
(dp513
g10
(lp514
S'C:5364'
p515
aS'C:5365'
p516
asg13
(lp517
S'C:635'
p518
aS'C:636'
p519
aS'C:637'
p520
asg18
S'LEU_181_A'
p521
sg20
S'SM9_1_A'
p522
sg22
S'H-H'
p523
sbag4
(g5
g6
Ntp524
Rp525
(dp526
g10
(lp527
S'C:5364'
p528
aS'C:5365'
p529
asg13
(lp530
S'C:291'
p531
asg18
S'PHE_161_A'
p532
sg20
S'SM9_1_A'
p533
sg22
S'H-H'
p534
sbag4
(g5
g6
Ntp535
Rp536
(dp537
g10
(lp538
S'C:5372'
p539
asg13
(lp540
S'C:635'
p541
aS'C:636'
p542
aS'C:637'
p543
asg18
S'LEU_181_A'
p544
sg20
S'SM9_1_A'
p545
sg22
S'H-H'
p546
sbag4
(g5
g6
Ntp547
Rp548
(dp549
g10
(lp550
S'C:5372'
p551
asg13
(lp552
S'C:291'
p553
asg18
S'PHE_161_A'
p554
sg20
S'SM9_1_A'
p555
sg22
S'H-H'
p556
sbag4
(g5
g6
Ntp557
Rp558
(dp559
g10
(lp560
S'C:5372'
p561
asg13
(lp562
S'C:318'
p563
asg18
S'LYS_163_A'
p564
sg20
S'SM9_1_A'
p565
sg22
S'H-H'
p566
sbag4
(g5
g6
Ntp567
Rp568
(dp569
g10
(lp570
S'C:5372'
p571
asg13
(lp572
S'C:594'
p573
asg18
S'LYS_179_A'
p574
sg20
S'SM9_1_A'
p575
sg22
S'H-H'
p576
sbag4
(g5
g6
Ntp577
Rp578
(dp579
g10
(lp580
S'C:5372'
p581
asg13
(lp582
S'C:593'
p583
asg18
S'LYS_179_A'
p584
sg20
S'SM9_1_A'
p585
sg22
S'H-H'
p586
sbasS'HBD-HBA'
p587
(lp588
g4
(g5
g6
Ntp589
Rp590
(dp591
g10
(lp592
S'O:5362'
p593
asg13
(lp594
S'O:2468'
p595
asg18
S'ASP_292_A'
p596
sg20
S'SM9_1_A'
p597
sg22
g587
sbasS'HBA-HBD'
p598
(lp599
g4
(g5
g6
Ntp600
Rp601
(dp602
g10
(lp603
S'N:5387'
p604
asg13
(lp605
S'N:1452'
p606
aS'H:1457'
p607
asg18
S'ALA_230_A'
p608
sg20
S'SM9_1_A'
p609
sg22
g598
sbag4
(g5
g6
Ntp610
Rp611
(dp612
g10
(lp613
S'O:5362'
p614
asg13
(lp615
S'N:597'
p616
asg18
S'LYS_179_A'
p617
sg20
S'SM9_1_A'
p618
sg22
S'HBA-HBD'
p619
sbag4
(g5
g6
Ntp620
Rp621
(dp622
g10
(lp623
S'O:5399'
p624
asg13
(lp625
S'N:287'
p626
aS'H:298'
p627
asg18
S'PHE_161_A'
p628
sg20
S'SM9_1_A'
p629
sg22
S'HBA-HBD'
p630
sbass.