(dp0
I0
(dp1
S'H-H'
p2
(lp3
ccopy_reg
_reconstructor
p4
(c__main__
Ph4InteractionInformation
p5
c__builtin__
object
p6
Ntp7
Rp8
(dp9
S'lig_atom'
p10
(lp11
S'C:5382'
p12
aS'C:5383'
p13
aS'H:5412'
p14
asS'env_atom'
p15
(lp16
S'C:340'
p17
aS'C:341'
p18
aS'C:342'
p19
asS'env_residue'
p20
S'VAL_164_A'
p21
sS'lig_residue'
p22
S'0RF_501_A'
p23
sS'interaction_type'
p24
g2
sbag4
(g5
g6
Ntp25
Rp26
(dp27
g10
(lp28
S'C:5382'
p29
aS'C:5383'
p30
aS'H:5412'
p31
asg15
(lp32
S'C:594'
p33
asg20
S'LYS_179_A'
p34
sg22
S'0RF_501_A'
p35
sg24
S'H-H'
p36
sbag4
(g5
g6
Ntp37
Rp38
(dp39
g10
(lp40
S'C:5383'
p41
aS'C:5384'
p42
aS'C:5385'
p43
aS'H:5413'
p44
asg15
(lp45
S'C:340'
p46
aS'C:341'
p47
aS'C:342'
p48
asg20
S'VAL_164_A'
p49
sg22
S'0RF_501_A'
p50
sg24
S'H-H'
p51
sbag4
(g5
g6
Ntp52
Rp53
(dp54
g10
(lp55
S'C:5383'
p56
aS'C:5384'
p57
aS'C:5385'
p58
aS'H:5413'
p59
asg15
(lp60
S'C:594'
p61
asg20
S'LYS_179_A'
p62
sg22
S'0RF_501_A'
p63
sg24
S'H-H'
p64
sbag4
(g5
g6
Ntp65
Rp66
(dp67
g10
(lp68
S'C:5360'
p69
aS'N:5361'
p70
aS'C:5362'
p71
aS'C:5365'
p72
aS'H:5391'
p73
asg15
(lp74
S'C:1436'
p75
aS'C:1437'
p76
aS'C:1438'
p77
aS'C:1439'
p78
aS'C:1440'
p79
aS'C:1441'
p80
asg20
S'TYR_229_A'
p81
sg22
S'0RF_501_A'
p82
sg24
S'H-H'
p83
sbag4
(g5
g6
Ntp84
Rp85
(dp86
g10
(lp87
S'C:5360'
p88
aS'N:5361'
p89
aS'C:5362'
p90
aS'C:5365'
p91
aS'H:5391'
p92
asg15
(lp93
S'C:4806'
p94
aS'C:4807'
p95
aS'C:4808'
p96
aS'C:4809'
p97
aS'C:4810'
p98
aS'C:4811'
p99
asg20
S'PHE_438_A'
p100
sg22
S'0RF_501_A'
p101
sg24
S'H-H'
p102
sbag4
(g5
g6
Ntp103
Rp104
(dp105
g10
(lp106
S'C:5360'
p107
aS'N:5361'
p108
aS'C:5362'
p109
aS'C:5365'
p110
aS'H:5391'
p111
asg15
(lp112
S'C:223'
p113
aS'C:224'
p114
aS'C:225'
p115
asg20
S'LEU_156_A'
p116
sg22
S'0RF_501_A'
p117
sg24
S'H-H'
p118
sbag4
(g5
g6
Ntp119
Rp120
(dp121
g10
(lp122
S'C:5360'
p123
aS'N:5361'
p124
aS'C:5362'
p125
aS'C:5365'
p126
aS'H:5391'
p127
asg15
(lp128
S'C:340'
p129
aS'C:341'
p130
aS'C:342'
p131
asg20
S'VAL_164_A'
p132
sg22
S'0RF_501_A'
p133
sg24
S'H-H'
p134
sbag4
(g5
g6
Ntp135
Rp136
(dp137
g10
(lp138
S'C:5360'
p139
aS'N:5361'
p140
aS'C:5362'
p141
aS'C:5365'
p142
aS'H:5391'
p143
asg15
(lp144
S'C:563'
p145
aS'C:566'
p146
asg20
S'ALA_177_A'
p147
sg22
S'0RF_501_A'
p148
sg24
S'H-H'
p149
sbag4
(g5
g6
Ntp150
Rp151
(dp152
g10
(lp153
S'C:5360'
p154
aS'N:5361'
p155
aS'C:5362'
p156
aS'C:5365'
p157
aS'H:5391'
p158
asg15
(lp159
S'C:1453'
p160
aS'C:1456'
p161
asg20
S'ALA_230_A'
p162
sg22
S'0RF_501_A'
p163
sg24
S'H-H'
p164
sbag4
(g5
g6
Ntp165
Rp166
(dp167
g10
(lp168
S'C:5360'
p169
aS'N:5361'
p170
aS'C:5362'
p171
aS'C:5365'
p172
aS'H:5391'
p173
asg15
(lp174
S'C:222'
p175
asg20
S'LEU_156_A'
p176
sg22
S'0RF_501_A'
p177
sg24
S'H-H'
p178
sbag4
(g5
g6
Ntp179
Rp180
(dp181
g10
(lp182
S'C:5360'
p183
aS'N:5361'
p184
aS'C:5362'
p185
aS'C:5365'
p186
aS'H:5391'
p187
asg15
(lp188
S'C:1435'
p189
asg20
S'TYR_229_A'
p190
sg22
S'0RF_501_A'
p191
sg24
S'H-H'
p192
sbag4
(g5
g6
Ntp193
Rp194
(dp195
g10
(lp196
S'C:5360'
p197
aS'N:5361'
p198
aS'C:5362'
p199
aS'C:5365'
p200
aS'H:5391'
p201
asg15
(lp202
S'C:2289'
p203
asg20
S'MET_281_A'
p204
sg22
S'0RF_501_A'
p205
sg24
S'H-H'
p206
sbag4
(g5
g6
Ntp207
Rp208
(dp209
g10
(lp210
S'C:5360'
p211
aS'N:5361'
p212
aS'C:5362'
p213
aS'C:5365'
p214
aS'H:5391'
p215
asg15
(lp216
S'S:2288'
p217
asg20
S'MET_281_A'
p218
sg22
S'0RF_501_A'
p219
sg24
S'H-H'
p220
sbag4
(g5
g6
Ntp221
Rp222
(dp223
g10
(lp224
S'C:5360'
p225
aS'N:5361'
p226
aS'C:5362'
p227
aS'C:5365'
p228
aS'H:5391'
p229
asg15
(lp230
S'C:2287'
p231
asg20
S'MET_281_A'
p232
sg22
S'0RF_501_A'
p233
sg24
S'H-H'
p234
sbag4
(g5
g6
Ntp235
Rp236
(dp237
g10
(lp238
S'C:5365'
p239
aS'C:5366'
p240
aS'C:5367'
p241
aS'C:5369'
p242
aS'H:5392'
p243
asg15
(lp244
S'C:340'
p245
aS'C:341'
p246
aS'C:342'
p247
asg20
S'VAL_164_A'
p248
sg22
S'0RF_501_A'
p249
sg24
S'H-H'
p250
sbag4
(g5
g6
Ntp251
Rp252
(dp253
g10
(lp254
S'C:5365'
p255
aS'C:5366'
p256
aS'C:5367'
p257
aS'C:5369'
p258
aS'H:5392'
p259
asg15
(lp260
S'C:563'
p261
aS'C:566'
p262
asg20
S'ALA_177_A'
p263
sg22
S'0RF_501_A'
p264
sg24
S'H-H'
p265
sbag4
(g5
g6
Ntp266
Rp267
(dp268
g10
(lp269
S'C:5365'
p270
aS'C:5366'
p271
aS'C:5367'
p272
aS'C:5369'
p273
aS'H:5392'
p274
asg15
(lp275
S'C:593'
p276
asg20
S'LYS_179_A'
p277
sg22
S'0RF_501_A'
p278
sg24
S'H-H'
p279
sbag4
(g5
g6
Ntp280
Rp281
(dp282
g10
(lp283
S'C:5365'
p284
aS'C:5366'
p285
aS'C:5367'
p286
aS'C:5369'
p287
aS'H:5392'
p288
asg15
(lp289
S'C:1406'
p290
asg20
S'MET_227_A'
p291
sg22
S'0RF_501_A'
p292
sg24
S'H-H'
p293
sbag4
(g5
g6
Ntp294
Rp295
(dp296
g10
(lp297
S'C:5365'
p298
aS'C:5366'
p299
aS'C:5367'
p300
aS'C:5369'
p301
aS'H:5392'
p302
asg15
(lp303
S'S:1405'
p304
asg20
S'MET_227_A'
p305
sg22
S'0RF_501_A'
p306
sg24
S'H-H'
p307
sbag4
(g5
g6
Ntp308
Rp309
(dp310
g10
(lp311
S'C:5365'
p312
aS'C:5366'
p313
aS'C:5367'
p314
aS'C:5369'
p315
aS'H:5392'
p316
asg15
(lp317
S'C:1403'
p318
asg20
S'MET_227_A'
p319
sg22
S'0RF_501_A'
p320
sg24
S'H-H'
p321
sbag4
(g5
g6
Ntp322
Rp323
(dp324
g10
(lp325
S'C:5365'
p326
aS'C:5366'
p327
aS'C:5367'
p328
aS'C:5369'
p329
aS'H:5392'
p330
asg15
(lp331
S'C:2289'
p332
asg20
S'MET_281_A'
p333
sg22
S'0RF_501_A'
p334
sg24
S'H-H'
p335
sbag4
(g5
g6
Ntp336
Rp337
(dp338
g10
(lp339
S'C:5365'
p340
aS'C:5366'
p341
aS'C:5367'
p342
aS'C:5369'
p343
aS'H:5392'
p344
asg15
(lp345
S'S:2288'
p346
asg20
S'MET_281_A'
p347
sg22
S'0RF_501_A'
p348
sg24
S'H-H'
p349
sbag4
(g5
g6
Ntp350
Rp351
(dp352
g10
(lp353
S'N:5359'
p354
aS'C:5360'
p355
aS'N:5361'
p356
aS'C:5362'
p357
aS'C:5363'
p358
aS'C:5364'
p359
asg15
(lp360
S'C:4806'
p361
aS'C:4807'
p362
aS'C:4808'
p363
aS'C:4809'
p364
aS'C:4810'
p365
aS'C:4811'
p366
asg20
S'PHE_438_A'
p367
sg22
S'0RF_501_A'
p368
sg24
S'H-H'
p369
sbag4
(g5
g6
Ntp370
Rp371
(dp372
g10
(lp373
S'N:5359'
p374
aS'C:5360'
p375
aS'N:5361'
p376
aS'C:5362'
p377
aS'C:5363'
p378
aS'C:5364'
p379
asg15
(lp380
S'C:223'
p381
aS'C:224'
p382
aS'C:225'
p383
asg20
S'LEU_156_A'
p384
sg22
S'0RF_501_A'
p385
sg24
S'H-H'
p386
sbag4
(g5
g6
Ntp387
Rp388
(dp389
g10
(lp390
S'N:5359'
p391
aS'C:5360'
p392
aS'N:5361'
p393
aS'C:5362'
p394
aS'C:5363'
p395
aS'C:5364'
p396
asg15
(lp397
S'C:340'
p398
aS'C:341'
p399
aS'C:342'
p400
asg20
S'VAL_164_A'
p401
sg22
S'0RF_501_A'
p402
sg24
S'H-H'
p403
sbag4
(g5
g6
Ntp404
Rp405
(dp406
g10
(lp407
S'N:5359'
p408
aS'C:5360'
p409
aS'N:5361'
p410
aS'C:5362'
p411
aS'C:5363'
p412
aS'C:5364'
p413
asg15
(lp414
S'C:563'
p415
aS'C:566'
p416
asg20
S'ALA_177_A'
p417
sg22
S'0RF_501_A'
p418
sg24
S'H-H'
p419
sbag4
(g5
g6
Ntp420
Rp421
(dp422
g10
(lp423
S'N:5359'
p424
aS'C:5360'
p425
aS'N:5361'
p426
aS'C:5362'
p427
aS'C:5363'
p428
aS'C:5364'
p429
asg15
(lp430
S'C:1453'
p431
aS'C:1456'
p432
asg20
S'ALA_230_A'
p433
sg22
S'0RF_501_A'
p434
sg24
S'H-H'
p435
sbag4
(g5
g6
Ntp436
Rp437
(dp438
g10
(lp439
S'N:5359'
p440
aS'C:5360'
p441
aS'N:5361'
p442
aS'C:5362'
p443
aS'C:5363'
p444
aS'C:5364'
p445
asg15
(lp446
S'C:222'
p447
asg20
S'LEU_156_A'
p448
sg22
S'0RF_501_A'
p449
sg24
S'H-H'
p450
sbag4
(g5
g6
Ntp451
Rp452
(dp453
g10
(lp454
S'N:5359'
p455
aS'C:5360'
p456
aS'N:5361'
p457
aS'C:5362'
p458
aS'C:5363'
p459
aS'C:5364'
p460
asg15
(lp461
S'C:2289'
p462
asg20
S'MET_281_A'
p463
sg22
S'0RF_501_A'
p464
sg24
S'H-H'
p465
sbag4
(g5
g6
Ntp466
Rp467
(dp468
g10
(lp469
S'N:5359'
p470
aS'C:5360'
p471
aS'N:5361'
p472
aS'C:5362'
p473
aS'C:5363'
p474
aS'C:5364'
p475
asg15
(lp476
S'S:2288'
p477
asg20
S'MET_281_A'
p478
sg22
S'0RF_501_A'
p479
sg24
S'H-H'
p480
sbag4
(g5
g6
Ntp481
Rp482
(dp483
g10
(lp484
S'N:5359'
p485
aS'C:5360'
p486
aS'N:5361'
p487
aS'C:5362'
p488
aS'C:5363'
p489
aS'C:5364'
p490
asg15
(lp491
S'C:2287'
p492
asg20
S'MET_281_A'
p493
sg22
S'0RF_501_A'
p494
sg24
S'H-H'
p495
sbag4
(g5
g6
Ntp496
Rp497
(dp498
g10
(lp499
S'N:5368'
p500
aS'C:5371'
p501
aS'C:5372'
p502
aS'N:5373'
p503
aS'C:5374'
p504
aS'C:5375'
p505
asg15
(lp506
S'C:340'
p507
aS'C:341'
p508
aS'C:342'
p509
asg20
S'VAL_164_A'
p510
sg22
S'0RF_501_A'
p511
sg24
S'H-H'
p512
sbag4
(g5
g6
Ntp513
Rp514
(dp515
g10
(lp516
S'N:5368'
p517
aS'C:5371'
p518
aS'C:5372'
p519
aS'N:5373'
p520
aS'C:5374'
p521
aS'C:5375'
p522
asg15
(lp523
S'C:222'
p524
asg20
S'LEU_156_A'
p525
sg22
S'0RF_501_A'
p526
sg24
S'H-H'
p527
sbag4
(g5
g6
Ntp528
Rp529
(dp530
g10
(lp531
S'N:5368'
p532
aS'C:5371'
p533
aS'C:5372'
p534
aS'N:5373'
p535
aS'C:5374'
p536
aS'C:5375'
p537
asg15
(lp538
S'C:2289'
p539
asg20
S'MET_281_A'
p540
sg22
S'0RF_501_A'
p541
sg24
S'H-H'
p542
sbag4
(g5
g6
Ntp543
Rp544
(dp545
g10
(lp546
S'N:5368'
p547
aS'C:5371'
p548
aS'C:5372'
p549
aS'N:5373'
p550
aS'C:5374'
p551
aS'C:5375'
p552
asg15
(lp553
S'S:2288'
p554
asg20
S'MET_281_A'
p555
sg22
S'0RF_501_A'
p556
sg24
S'H-H'
p557
sbag4
(g5
g6
Ntp558
Rp559
(dp560
g10
(lp561
S'N:5368'
p562
aS'C:5371'
p563
aS'C:5372'
p564
aS'N:5373'
p565
aS'C:5374'
p566
aS'C:5375'
p567
asg15
(lp568
S'C:2287'
p569
asg20
S'MET_281_A'
p570
sg22
S'0RF_501_A'
p571
sg24
S'H-H'
p572
sbag4
(g5
g6
Ntp573
Rp574
(dp575
g10
(lp576
S'C:5379'
p577
aS'C:5382'
p578
aS'C:5383'
p579
aS'C:5384'
p580
aS'C:5385'
p581
aS'C:5386'
p582
asg15
(lp583
S'C:340'
p584
aS'C:341'
p585
aS'C:342'
p586
asg20
S'VAL_164_A'
p587
sg22
S'0RF_501_A'
p588
sg24
S'H-H'
p589
sbag4
(g5
g6
Ntp590
Rp591
(dp592
g10
(lp593
S'C:5379'
p594
aS'C:5382'
p595
aS'C:5383'
p596
aS'C:5384'
p597
aS'C:5385'
p598
aS'C:5386'
p599
asg15
(lp600
S'C:594'
p601
asg20
S'LYS_179_A'
p602
sg22
S'0RF_501_A'
p603
sg24
S'H-H'
p604
sbag4
(g5
g6
Ntp605
Rp606
(dp607
g10
(lp608
S'Cl:5387'
p609
asg15
(lp610
S'C:340'
p611
aS'C:341'
p612
aS'C:342'
p613
asg20
S'VAL_164_A'
p614
sg22
S'0RF_501_A'
p615
sg24
S'H-H'
p616
sbag4
(g5
g6
Ntp617
Rp618
(dp619
g10
(lp620
S'Cl:5387'
p621
asg15
(lp622
S'C:635'
p623
aS'C:636'
p624
aS'C:637'
p625
asg20
S'LEU_181_A'
p626
sg22
S'0RF_501_A'
p627
sg24
S'H-H'
p628
sbag4
(g5
g6
Ntp629
Rp630
(dp631
g10
(lp632
S'Cl:5387'
p633
asg15
(lp634
S'C:291'
p635
asg20
S'PHE_161_A'
p636
sg22
S'0RF_501_A'
p637
sg24
S'H-H'
p638
sbag4
(g5
g6
Ntp639
Rp640
(dp641
g10
(lp642
S'Cl:5387'
p643
asg15
(lp644
S'C:318'
p645
asg20
S'LYS_163_A'
p646
sg22
S'0RF_501_A'
p647
sg24
S'H-H'
p648
sbag4
(g5
g6
Ntp649
Rp650
(dp651
g10
(lp652
S'Cl:5387'
p653
asg15
(lp654
S'C:594'
p655
asg20
S'LYS_179_A'
p656
sg22
S'0RF_501_A'
p657
sg24
S'H-H'
p658
sbag4
(g5
g6
Ntp659
Rp660
(dp661
g10
(lp662
S'Cl:5387'
p663
asg15
(lp664
S'C:593'
p665
asg20
S'LYS_179_A'
p666
sg22
S'0RF_501_A'
p667
sg24
S'H-H'
p668
sbasS'HBD-HBA'
p669
(lp670
g4
(g5
g6
Ntp671
Rp672
(dp673
g10
(lp674
S'N:5381'
p675
aS'H:5411'
p676
asg15
(lp677
S'O:1498'
p678
asg20
S'GLU_234_A'
p679
sg22
S'0RF_501_A'
p680
sg24
g669
sbag4
(g5
g6
Ntp681
Rp682
(dp683
g10
(lp684
S'O:5370'
p685
asg15
(lp686
S'O:1419'
p687
asg20
S'GLU_228_A'
p688
sg22
S'0RF_501_A'
p689
sg24
S'HBD-HBA'
p690
sbasS'HBA-HBD'
p691
(lp692
g4
(g5
g6
Ntp693
Rp694
(dp695
g10
(lp696
S'N:5361'
p697
asg15
(lp698
S'N:1452'
p699
aS'H:1457'
p700
asg20
S'ALA_230_A'
p701
sg22
S'0RF_501_A'
p702
sg24
g691
sbass.