(dp0
I0
(dp1
S'H-H'
p2
(lp3
ccopy_reg
_reconstructor
p4
(c__main__
Ph4InteractionInformation
p5
c__builtin__
object
p6
Ntp7
Rp8
(dp9
S'lig_atom'
p10
(lp11
S'C:5280'
p12
aS'C:5281'
p13
aS'N:5283'
p14
aS'C:5284'
p15
aS'N:5302'
p16
asS'env_atom'
p17
(lp18
S'C:4877'
p19
aS'C:4878'
p20
aS'C:4879'
p21
aS'C:4880'
p22
aS'C:4881'
p23
aS'C:4882'
p24
asS'env_residue'
p25
S'PHE_442_A'
p26
sS'lig_residue'
p27
S'EX4_501_A'
p28
sS'interaction_type'
p29
g2
sbag4
(g5
g6
Ntp30
Rp31
(dp32
g10
(lp33
S'C:5280'
p34
aS'C:5281'
p35
aS'N:5283'
p36
aS'C:5284'
p37
aS'N:5302'
p38
asg17
(lp39
S'C:378'
p40
aS'C:379'
p41
aS'C:380'
p42
asg25
S'VAL_164_A'
p43
sg27
S'EX4_501_A'
p44
sg29
S'H-H'
p45
sbag4
(g5
g6
Ntp46
Rp47
(dp48
g10
(lp49
S'C:5282'
p50
aS'C:5285'
p51
aS'C:5286'
p52
aS'C:5287'
p53
aS'N:5300'
p54
aS'C:5301'
p55
asg17
(lp56
S'C:378'
p57
aS'C:379'
p58
aS'C:380'
p59
asg25
S'VAL_164_A'
p60
sg27
S'EX4_501_A'
p61
sg29
S'H-H'
p62
sbag4
(g5
g6
Ntp63
Rp64
(dp65
g10
(lp66
S'C:5282'
p67
aS'C:5285'
p68
aS'C:5286'
p69
aS'C:5287'
p70
aS'N:5300'
p71
aS'C:5301'
p72
asg17
(lp73
S'C:260'
p74
asg25
S'LEU_156_A'
p75
sg27
S'EX4_501_A'
p76
sg29
S'H-H'
p77
sbag4
(g5
g6
Ntp78
Rp79
(dp80
g10
(lp81
S'C:5282'
p82
aS'C:5285'
p83
aS'C:5286'
p84
aS'C:5287'
p85
aS'N:5300'
p86
aS'C:5301'
p87
asg17
(lp88
S'C:2328'
p89
asg25
S'MET_281_A'
p90
sg27
S'EX4_501_A'
p91
sg29
S'H-H'
p92
sbag4
(g5
g6
Ntp93
Rp94
(dp95
g10
(lp96
S'C:5282'
p97
aS'C:5285'
p98
aS'C:5286'
p99
aS'C:5287'
p100
aS'N:5300'
p101
aS'C:5301'
p102
asg17
(lp103
S'S:2326'
p104
asg25
S'MET_281_A'
p105
sg27
S'EX4_501_A'
p106
sg29
S'H-H'
p107
sbag4
(g5
g6
Ntp108
Rp109
(dp110
g10
(lp111
S'C:5291'
p112
aS'N:5292'
p113
aS'C:5293'
p114
aS'N:5294'
p115
aS'C:5298'
p116
aS'C:5299'
p117
asg17
(lp118
S'C:4815'
p119
aS'C:4816'
p120
aS'C:4817'
p121
aS'C:4818'
p122
aS'C:4819'
p123
aS'C:4820'
p124
asg25
S'PHE_438_A'
p125
sg27
S'EX4_501_A'
p126
sg29
S'H-H'
p127
sbag4
(g5
g6
Ntp128
Rp129
(dp130
g10
(lp131
S'C:5291'
p132
aS'N:5292'
p133
aS'C:5293'
p134
aS'N:5294'
p135
aS'C:5298'
p136
aS'C:5299'
p137
asg17
(lp138
S'C:261'
p139
aS'C:262'
p140
aS'C:263'
p141
asg25
S'LEU_156_A'
p142
sg27
S'EX4_501_A'
p143
sg29
S'H-H'
p144
sbag4
(g5
g6
Ntp145
Rp146
(dp147
g10
(lp148
S'C:5291'
p149
aS'N:5292'
p150
aS'C:5293'
p151
aS'N:5294'
p152
aS'C:5298'
p153
aS'C:5299'
p154
asg17
(lp155
S'C:378'
p156
aS'C:379'
p157
aS'C:380'
p158
asg25
S'VAL_164_A'
p159
sg27
S'EX4_501_A'
p160
sg29
S'H-H'
p161
sbag4
(g5
g6
Ntp162
Rp163
(dp164
g10
(lp165
S'C:5291'
p166
aS'N:5292'
p167
aS'C:5293'
p168
aS'N:5294'
p169
aS'C:5298'
p170
aS'C:5299'
p171
asg17
(lp172
S'C:601'
p173
aS'C:604'
p174
asg25
S'ALA_177_A'
p175
sg27
S'EX4_501_A'
p176
sg29
S'H-H'
p177
sbag4
(g5
g6
Ntp178
Rp179
(dp180
g10
(lp181
S'C:5291'
p182
aS'N:5292'
p183
aS'C:5293'
p184
aS'N:5294'
p185
aS'C:5298'
p186
aS'C:5299'
p187
asg17
(lp188
S'C:1488'
p189
aS'C:1491'
p190
asg25
S'ALA_230_A'
p191
sg27
S'EX4_501_A'
p192
sg29
S'H-H'
p193
sbag4
(g5
g6
Ntp194
Rp195
(dp196
g10
(lp197
S'C:5291'
p198
aS'N:5292'
p199
aS'C:5293'
p200
aS'N:5294'
p201
aS'C:5298'
p202
aS'C:5299'
p203
asg17
(lp204
S'C:260'
p205
asg25
S'LEU_156_A'
p206
sg27
S'EX4_501_A'
p207
sg29
S'H-H'
p208
sbag4
(g5
g6
Ntp209
Rp210
(dp211
g10
(lp212
S'C:5291'
p213
aS'N:5292'
p214
aS'C:5293'
p215
aS'N:5294'
p216
aS'C:5298'
p217
aS'C:5299'
p218
asg17
(lp219
S'C:1438'
p220
asg25
S'MET_227_A'
p221
sg27
S'EX4_501_A'
p222
sg29
S'H-H'
p223
sbag4
(g5
g6
Ntp224
Rp225
(dp226
g10
(lp227
S'C:5291'
p228
aS'N:5292'
p229
aS'C:5293'
p230
aS'N:5294'
p231
aS'C:5298'
p232
aS'C:5299'
p233
asg17
(lp234
S'C:2328'
p235
asg25
S'MET_281_A'
p236
sg27
S'EX4_501_A'
p237
sg29
S'H-H'
p238
sbag4
(g5
g6
Ntp239
Rp240
(dp241
g10
(lp242
S'C:5291'
p243
aS'N:5292'
p244
aS'C:5293'
p245
aS'N:5294'
p246
aS'C:5298'
p247
aS'C:5299'
p248
asg17
(lp249
S'S:2326'
p250
asg25
S'MET_281_A'
p251
sg27
S'EX4_501_A'
p252
sg29
S'H-H'
p253
sbag4
(g5
g6
Ntp254
Rp255
(dp256
g10
(lp257
S'C:5291'
p258
aS'N:5292'
p259
aS'C:5293'
p260
aS'N:5294'
p261
aS'C:5298'
p262
aS'C:5299'
p263
asg17
(lp264
S'C:2324'
p265
asg25
S'MET_281_A'
p266
sg27
S'EX4_501_A'
p267
sg29
S'H-H'
p268
sbag4
(g5
g6
Ntp269
Rp270
(dp271
g10
(lp272
S'C:5280'
p273
aS'C:5281'
p274
aS'N:5302'
p275
aS'C:5303'
p276
aS'C:5310'
p277
aS'C:5311'
p278
aS'H:5351'
p279
asg17
(lp280
S'C:4877'
p281
aS'C:4878'
p282
aS'C:4879'
p283
aS'C:4880'
p284
aS'C:4881'
p285
aS'C:4882'
p286
asg25
S'PHE_442_A'
p287
sg27
S'EX4_501_A'
p288
sg29
S'H-H'
p289
sbag4
(g5
g6
Ntp290
Rp291
(dp292
g10
(lp293
S'C:5285'
p294
aS'C:5286'
p295
aS'C:5301'
p296
aS'C:5311'
p297
aS'C:5312'
p298
aS'H:5326'
p299
aS'H:5352'
p300
asg17
(lp301
S'C:378'
p302
aS'C:379'
p303
aS'C:380'
p304
asg25
S'VAL_164_A'
p305
sg27
S'EX4_501_A'
p306
sg29
S'H-H'
p307
sbag4
(g5
g6
Ntp308
Rp309
(dp310
g10
(lp311
S'C:5317'
p312
aS'F:5318'
p313
aS'F:5319'
p314
aS'F:5320'
p315
asg17
(lp316
S'C:378'
p317
aS'C:379'
p318
aS'C:380'
p319
asg25
S'VAL_164_A'
p320
sg27
S'EX4_501_A'
p321
sg29
S'H-H'
p322
sbag4
(g5
g6
Ntp323
Rp324
(dp325
g10
(lp326
S'C:5317'
p327
aS'F:5318'
p328
aS'F:5319'
p329
aS'F:5320'
p330
asg17
(lp331
S'C:673'
p332
aS'C:674'
p333
aS'C:675'
p334
asg25
S'LEU_181_A'
p335
sg27
S'EX4_501_A'
p336
sg29
S'H-H'
p337
sbag4
(g5
g6
Ntp338
Rp339
(dp340
g10
(lp341
S'C:5317'
p342
aS'F:5318'
p343
aS'F:5319'
p344
aS'F:5320'
p345
asg17
(lp346
S'C:329'
p347
asg25
S'PHE_161_A'
p348
sg27
S'EX4_501_A'
p349
sg29
S'H-H'
p350
sbag4
(g5
g6
Ntp351
Rp352
(dp353
g10
(lp354
S'C:5317'
p355
aS'F:5318'
p356
aS'F:5319'
p357
aS'F:5320'
p358
asg17
(lp359
S'C:356'
p360
asg25
S'LYS_163_A'
p361
sg27
S'EX4_501_A'
p362
sg29
S'H-H'
p363
sbag4
(g5
g6
Ntp364
Rp365
(dp366
g10
(lp367
S'C:5317'
p368
aS'F:5318'
p369
aS'F:5319'
p370
aS'F:5320'
p371
asg17
(lp372
S'C:632'
p373
asg25
S'LYS_179_A'
p374
sg27
S'EX4_501_A'
p375
sg29
S'H-H'
p376
sbag4
(g5
g6
Ntp377
Rp378
(dp379
g10
(lp380
S'C:5317'
p381
aS'F:5318'
p382
aS'F:5319'
p383
aS'F:5320'
p384
asg17
(lp385
S'C:631'
p386
asg25
S'LYS_179_A'
p387
sg27
S'EX4_501_A'
p388
sg29
S'H-H'
p389
sbag4
(g5
g6
Ntp390
Rp391
(dp392
g10
(lp393
S'C:5297'
p394
asg17
(lp395
S'C:378'
p396
aS'C:379'
p397
aS'C:380'
p398
asg25
S'VAL_164_A'
p399
sg27
S'EX4_501_A'
p400
sg29
S'H-H'
p401
sbag4
(g5
g6
Ntp402
Rp403
(dp404
g10
(lp405
S'C:5297'
p406
asg17
(lp407
S'C:601'
p408
aS'C:604'
p409
asg25
S'ALA_177_A'
p410
sg27
S'EX4_501_A'
p411
sg29
S'H-H'
p412
sbag4
(g5
g6
Ntp413
Rp414
(dp415
g10
(lp416
S'C:5297'
p417
asg17
(lp418
S'C:632'
p419
asg25
S'LYS_179_A'
p420
sg27
S'EX4_501_A'
p421
sg29
S'H-H'
p422
sbag4
(g5
g6
Ntp423
Rp424
(dp425
g10
(lp426
S'C:5297'
p427
asg17
(lp428
S'C:631'
p429
asg25
S'LYS_179_A'
p430
sg27
S'EX4_501_A'
p431
sg29
S'H-H'
p432
sbag4
(g5
g6
Ntp433
Rp434
(dp435
g10
(lp436
S'C:5297'
p437
asg17
(lp438
S'C:1441'
p439
asg25
S'MET_227_A'
p440
sg27
S'EX4_501_A'
p441
sg29
S'H-H'
p442
sbag4
(g5
g6
Ntp443
Rp444
(dp445
g10
(lp446
S'C:5297'
p447
asg17
(lp448
S'S:1440'
p449
asg25
S'MET_227_A'
p450
sg27
S'EX4_501_A'
p451
sg29
S'H-H'
p452
sbag4
(g5
g6
Ntp453
Rp454
(dp455
g10
(lp456
S'C:5297'
p457
asg17
(lp458
S'C:1439'
p459
asg25
S'MET_227_A'
p460
sg27
S'EX4_501_A'
p461
sg29
S'H-H'
p462
sbag4
(g5
g6
Ntp463
Rp464
(dp465
g10
(lp466
S'C:5297'
p467
asg17
(lp468
S'C:1438'
p469
asg25
S'MET_227_A'
p470
sg27
S'EX4_501_A'
p471
sg29
S'H-H'
p472
sbag4
(g5
g6
Ntp473
Rp474
(dp475
g10
(lp476
S'C:5297'
p477
asg17
(lp478
S'C:2328'
p479
asg25
S'MET_281_A'
p480
sg27
S'EX4_501_A'
p481
sg29
S'H-H'
p482
sbag4
(g5
g6
Ntp483
Rp484
(dp485
g10
(lp486
S'F:5314'
p487
asg17
(lp488
S'C:330'
p489
aS'C:331'
p490
aS'C:332'
p491
aS'C:333'
p492
aS'C:334'
p493
aS'C:335'
p494
asg25
S'PHE_161_A'
p495
sg27
S'EX4_501_A'
p496
sg29
S'H-H'
p497
sbag4
(g5
g6
Ntp498
Rp499
(dp500
g10
(lp501
S'F:5314'
p502
asg17
(lp503
S'C:329'
p504
asg25
S'PHE_161_A'
p505
sg27
S'EX4_501_A'
p506
sg29
S'H-H'
p507
sbasS'HBD-HBA'
p508
(lp509
g4
(g5
g6
Ntp510
Rp511
(dp512
g10
(lp513
S'N:5290'
p514
aS'H:5329'
p515
asg17
(lp516
S'O:1454'
p517
asg25
S'GLU_228_A'
p518
sg27
S'EX4_501_A'
p519
sg29
g508
sbasS'HBA-HBD'
p520
(lp521
g4
(g5
g6
Ntp522
Rp523
(dp524
g10
(lp525
S'N:5292'
p526
asg17
(lp527
S'N:1487'
p528
aS'H:1492'
p529
asg25
S'ALA_230_A'
p530
sg27
S'EX4_501_A'
p531
sg29
g520
sbag4
(g5
g6
Ntp532
Rp533
(dp534
g10
(lp535
S'O:5288'
p536
asg17
(lp537
S'O:1172'
p538
asg25
S'THR_211_A'
p539
sg27
S'EX4_501_A'
p540
sg29
S'HBA-HBD'
p541
sbag4
(g5
g6
Ntp542
Rp543
(dp544
g10
(lp545
S'F:5314'
p546
asg17
(lp547
S'N:325'
p548
aS'H:336'
p549
asg25
S'PHE_161_A'
p550
sg27
S'EX4_501_A'
p551
sg29
S'HBA-HBD'
p552
sbass.