(dp0
I0
(dp1
S'NI-PI'
p2
(lp3
ccopy_reg
_reconstructor
p4
(c__main__
Ph4InteractionInformation
p5
c__builtin__
object
p6
Ntp7
Rp8
(dp9
S'lig_atom'
p10
(lp11
S'C:6121'
p12
aS'O:6122'
p13
aS'O:6123'
p14
asS'env_atom'
p15
(lp16
S'N:964'
p17
aS'C:965'
p18
aS'N:966'
p19
aS'N:967'
p20
asS'env_residue'
p21
S'ARG_64_B'
p22
sS'lig_residue'
p23
S'KT5_610_B'
p24
sS'interaction_type'
p25
g2
sbag4
(g5
g6
Ntp26
Rp27
(dp28
g10
(lp29
S'C:6121'
p30
aS'O:6122'
p31
aS'O:6123'
p32
asg15
(lp33
S'N:1368'
p34
aS'C:1369'
p35
aS'N:1370'
p36
aS'N:1371'
p37
asg21
S'ARG_90_B'
p38
sg23
S'KT5_610_B'
p39
sg25
S'NI-PI'
p40
sbag4
(g5
g6
Ntp41
Rp42
(dp43
g10
(lp44
S'C:6159'
p45
aS'O:6160'
p46
aS'O:6161'
p47
asg15
(lp48
S'N:536'
p49
asg21
S'LYS_37_B'
p50
sg23
S'KT5_610_B'
p51
sg25
S'NI-PI'
p52
sbasS'H-H'
p53
(lp54
g4
(g5
g6
Ntp55
Rp56
(dp57
g10
(lp58
S'C:6127'
p59
aS'C:6128'
p60
aS'C:6129'
p61
aS'C:6130'
p62
aS'C:6131'
p63
aS'C:6132'
p64
asg15
(lp65
S'C:2171'
p66
aS'C:2172'
p67
aS'C:2173'
p68
asg21
S'VAL_143_B'
p69
sg23
S'KT5_610_B'
p70
sg25
g53
sbag4
(g5
g6
Ntp71
Rp72
(dp73
g10
(lp74
S'C:6127'
p75
aS'C:6128'
p76
aS'C:6129'
p77
aS'C:6130'
p78
aS'C:6131'
p79
aS'C:6132'
p80
asg15
(lp81
S'C:1351'
p82
asg21
S'MET_89_B'
p83
sg23
S'KT5_610_B'
p84
sg25
S'H-H'
p85
sbag4
(g5
g6
Ntp86
Rp87
(dp88
g10
(lp89
S'C:6127'
p90
aS'C:6128'
p91
aS'C:6129'
p92
aS'C:6130'
p93
aS'C:6131'
p94
aS'C:6132'
p95
asg15
(lp96
S'S:1350'
p97
asg21
S'MET_89_B'
p98
sg23
S'KT5_610_B'
p99
sg25
S'H-H'
p100
sbag4
(g5
g6
Ntp101
Rp102
(dp103
g10
(lp104
S'C:6127'
p105
aS'C:6128'
p106
aS'C:6129'
p107
aS'C:6130'
p108
aS'C:6131'
p109
aS'C:6132'
p110
asg15
(lp111
S'C:1348'
p112
asg21
S'MET_89_B'
p113
sg23
S'KT5_610_B'
p114
sg25
S'H-H'
p115
sbag4
(g5
g6
Ntp116
Rp117
(dp118
g10
(lp119
S'C:6127'
p120
aS'C:6128'
p121
aS'C:6129'
p122
aS'C:6130'
p123
aS'C:6131'
p124
aS'C:6132'
p125
asg15
(lp126
S'C:1392'
p127
asg21
S'ILE_91_B'
p128
sg23
S'KT5_610_B'
p129
sg25
S'H-H'
p130
sbag4
(g5
g6
Ntp131
Rp132
(dp133
g10
(lp134
S'C:6127'
p135
aS'C:6128'
p136
aS'C:6129'
p137
aS'C:6130'
p138
aS'C:6131'
p139
aS'C:6132'
p140
asg15
(lp141
S'C:1390'
p142
asg21
S'ILE_91_B'
p143
sg23
S'KT5_610_B'
p144
sg25
S'H-H'
p145
sbag4
(g5
g6
Ntp146
Rp147
(dp148
g10
(lp149
S'C:6144'
p150
aS'C:6145'
p151
aS'C:6147'
p152
aS'N:6149'
p153
aS'C:6150'
p154
aS'N:6152'
p155
asg15
(lp156
S'C:1389'
p157
aS'C:1391'
p158
asg21
S'ILE_91_B'
p159
sg23
S'KT5_610_B'
p160
sg25
S'H-H'
p161
sbag4
(g5
g6
Ntp162
Rp163
(dp164
g10
(lp165
S'C:6144'
p166
aS'C:6145'
p167
aS'C:6147'
p168
aS'N:6149'
p169
aS'C:6150'
p170
aS'N:6152'
p171
asg15
(lp172
S'C:1409'
p173
aS'C:1410'
p174
aS'C:1411'
p175
asg21
S'LEU_92_B'
p176
sg23
S'KT5_610_B'
p177
sg25
S'H-H'
p178
sbag4
(g5
g6
Ntp179
Rp180
(dp181
g10
(lp182
S'C:6144'
p183
aS'C:6145'
p184
aS'C:6147'
p185
aS'N:6149'
p186
aS'C:6150'
p187
aS'N:6152'
p188
asg15
(lp189
S'C:2118'
p190
aS'C:2119'
p191
aS'C:2120'
p192
asg21
S'VAL_139_B'
p193
sg23
S'KT5_610_B'
p194
sg25
S'H-H'
p195
sbag4
(g5
g6
Ntp196
Rp197
(dp198
g10
(lp199
S'C:6144'
p200
aS'C:6145'
p201
aS'C:6147'
p202
aS'N:6149'
p203
aS'C:6150'
p204
aS'N:6152'
p205
asg15
(lp206
S'C:2171'
p207
aS'C:2172'
p208
aS'C:2173'
p209
asg21
S'VAL_143_B'
p210
sg23
S'KT5_610_B'
p211
sg25
S'H-H'
p212
sbag4
(g5
g6
Ntp213
Rp214
(dp215
g10
(lp216
S'C:6144'
p217
aS'C:6145'
p218
aS'C:6147'
p219
aS'N:6149'
p220
aS'C:6150'
p221
aS'N:6152'
p222
asg15
(lp223
S'C:1392'
p224
asg21
S'ILE_91_B'
p225
sg23
S'KT5_610_B'
p226
sg25
S'H-H'
p227
sbag4
(g5
g6
Ntp228
Rp229
(dp230
g10
(lp231
S'C:6144'
p232
aS'C:6145'
p233
aS'C:6147'
p234
aS'N:6149'
p235
aS'C:6150'
p236
aS'N:6152'
p237
asg15
(lp238
S'C:1390'
p239
asg21
S'ILE_91_B'
p240
sg23
S'KT5_610_B'
p241
sg25
S'H-H'
p242
sbag4
(g5
g6
Ntp243
Rp244
(dp245
g10
(lp246
S'C:6144'
p247
aS'C:6145'
p248
aS'C:6147'
p249
aS'N:6149'
p250
aS'C:6150'
p251
aS'N:6152'
p252
asg15
(lp253
S'C:1408'
p254
asg21
S'LEU_92_B'
p255
sg23
S'KT5_610_B'
p256
sg25
S'H-H'
p257
sbag4
(g5
g6
Ntp258
Rp259
(dp260
g10
(lp261
S'C:6135'
p262
aS'F:6136'
p263
aS'F:6137'
p264
aS'F:6138'
p265
asg15
(lp266
S'C:1671'
p267
aS'N:1672'
p268
aS'C:1673'
p269
aS'C:1674'
p270
aS'N:1675'
p271
asg21
S'HIS_108_B'
p272
sg23
S'KT5_610_B'
p273
sg25
S'H-H'
p274
sbag4
(g5
g6
Ntp275
Rp276
(dp277
g10
(lp278
S'C:6135'
p279
aS'F:6136'
p280
aS'F:6137'
p281
aS'F:6138'
p282
asg15
(lp283
S'N:1683'
p284
aS'C:1684'
p285
aS'C:1687'
p286
aS'C:1688'
p287
aS'C:1689'
p288
asg21
S'PRO_109_B'
p289
sg23
S'KT5_610_B'
p290
sg25
S'H-H'
p291
sbag4
(g5
g6
Ntp292
Rp293
(dp294
g10
(lp295
S'C:6135'
p296
aS'F:6136'
p297
aS'F:6137'
p298
aS'F:6138'
p299
asg15
(lp300
S'C:1351'
p301
asg21
S'MET_89_B'
p302
sg23
S'KT5_610_B'
p303
sg25
S'H-H'
p304
sbag4
(g5
g6
Ntp305
Rp306
(dp307
g10
(lp308
S'C:6135'
p309
aS'F:6136'
p310
aS'F:6137'
p311
aS'F:6138'
p312
asg15
(lp313
S'S:1350'
p314
asg21
S'MET_89_B'
p315
sg23
S'KT5_610_B'
p316
sg25
S'H-H'
p317
sbag4
(g5
g6
Ntp318
Rp319
(dp320
g10
(lp321
S'C:6135'
p322
aS'F:6136'
p323
aS'F:6137'
p324
aS'F:6138'
p325
asg15
(lp326
S'C:1670'
p327
asg21
S'HIS_108_B'
p328
sg23
S'KT5_610_B'
p329
sg25
S'H-H'
p330
sbag4
(g5
g6
Ntp331
Rp332
(dp333
g10
(lp334
S'C:6143'
p335
asg15
(lp336
S'C:1293'
p337
aS'C:1294'
p338
aS'C:1295'
p339
asg21
S'LEU_85_B'
p340
sg23
S'KT5_610_B'
p341
sg25
S'H-H'
p342
sbag4
(g5
g6
Ntp343
Rp344
(dp345
g10
(lp346
S'C:6143'
p347
asg15
(lp348
S'C:2118'
p349
aS'C:2119'
p350
aS'C:2120'
p351
asg21
S'VAL_139_B'
p352
sg23
S'KT5_610_B'
p353
sg25
S'H-H'
p354
sbag4
(g5
g6
Ntp355
Rp356
(dp357
g10
(lp358
S'C:6143'
p359
asg15
(lp360
S'C:2171'
p361
aS'C:2172'
p362
aS'C:2173'
p363
asg21
S'VAL_143_B'
p364
sg23
S'KT5_610_B'
p365
sg25
S'H-H'
p366
sbag4
(g5
g6
Ntp367
Rp368
(dp369
g10
(lp370
S'C:6143'
p371
asg15
(lp372
S'C:1392'
p373
asg21
S'ILE_91_B'
p374
sg23
S'KT5_610_B'
p375
sg25
S'H-H'
p376
sbag4
(g5
g6
Ntp377
Rp378
(dp379
g10
(lp380
S'C:6142'
p381
asg15
(lp382
S'C:2171'
p383
aS'C:2172'
p384
aS'C:2173'
p385
asg21
S'VAL_143_B'
p386
sg23
S'KT5_610_B'
p387
sg25
S'H-H'
p388
sbag4
(g5
g6
Ntp389
Rp390
(dp391
g10
(lp392
S'C:6142'
p393
asg15
(lp394
S'C:1392'
p395
asg21
S'ILE_91_B'
p396
sg23
S'KT5_610_B'
p397
sg25
S'H-H'
p398
sbag4
(g5
g6
Ntp399
Rp400
(dp401
g10
(lp402
S'C:6142'
p403
asg15
(lp404
S'C:1390'
p405
asg21
S'ILE_91_B'
p406
sg23
S'KT5_610_B'
p407
sg25
S'H-H'
p408
sbasS'HBD-HBA'
p409
(lp410
g4
(g5
g6
Ntp411
Rp412
(dp413
g10
(lp414
S'N:6124'
p415
aS'H:6168'
p416
asg15
(lp417
S'O:1347'
p418
asg21
S'MET_89_B'
p419
sg23
S'KT5_610_B'
p420
sg25
g409
sbag4
(g5
g6
Ntp421
Rp422
(dp423
g10
(lp424
S'N:6149'
p425
aS'H:6184'
p426
asg15
(lp427
S'O:2133'
p428
asg21
S'ALA_140_B'
p429
sg23
S'KT5_610_B'
p430
sg25
S'HBD-HBA'
p431
sbag4
(g5
g6
Ntp432
Rp433
(dp434
g10
(lp435
S'N:6151'
p436
aS'H:6185'
p437
asg15
(lp438
S'O:1407'
p439
asg21
S'LEU_92_B'
p440
sg23
S'KT5_610_B'
p441
sg25
S'HBD-HBA'
p442
sbag4
(g5
g6
Ntp443
Rp444
(dp445
g10
(lp446
S'N:6151'
p447
aS'H:6186'
p448
asg15
(lp449
S'O:2143'
p450
asg21
S'GLU_141_B'
p451
sg23
S'KT5_610_B'
p452
sg25
S'HBD-HBA'
p453
sbag4
(g5
g6
Ntp454
Rp455
(dp456
g10
(lp457
S'O:6139'
p458
asg15
(lp459
S'O:2189'
p460
asg21
S'ASP_144_B'
p461
sg23
S'KT5_610_B'
p462
sg25
S'HBD-HBA'
p463
sbag4
(g5
g6
Ntp464
Rp465
(dp466
g10
(lp467
S'O:6139'
p468
asg15
(lp469
S'N:1672'
p470
asg21
S'HIS_108_B'
p471
sg23
S'KT5_610_B'
p472
sg25
S'HBD-HBA'
p473
sbag4
(g5
g6
Ntp474
Rp475
(dp476
g10
(lp477
S'O:6140'
p478
asg15
(lp479
S'O:2190'
p480
asg21
S'ASP_144_B'
p481
sg23
S'KT5_610_B'
p482
sg25
S'HBD-HBA'
p483
sbag4
(g5
g6
Ntp484
Rp485
(dp486
g10
(lp487
S'O:6140'
p488
asg15
(lp489
S'N:1672'
p490
asg21
S'HIS_108_B'
p491
sg23
S'KT5_610_B'
p492
sg25
S'HBD-HBA'
p493
sbag4
(g5
g6
Ntp494
Rp495
(dp496
g10
(lp497
S'N:6146'
p498
asg15
(lp499
S'O:1364'
p500
asg21
S'ARG_90_B'
p501
sg23
S'KT5_610_B'
p502
sg25
S'HBD-HBA'
p503
sbasS'HBA-HBD'
p504
(lp505
g4
(g5
g6
Ntp506
Rp507
(dp508
g10
(lp509
S'N:6152'
p510
asg15
(lp511
S'N:1404'
p512
aS'H:1412'
p513
asg21
S'LEU_92_B'
p514
sg23
S'KT5_610_B'
p515
sg25
g504
sbag4
(g5
g6
Ntp516
Rp517
(dp518
g10
(lp519
S'O:6122'
p520
asg15
(lp521
S'N:1385'
p522
aS'H:1393'
p523
asg21
S'ILE_91_B'
p524
sg23
S'KT5_610_B'
p525
sg25
S'HBA-HBD'
p526
sbag4
(g5
g6
Ntp527
Rp528
(dp529
g10
(lp530
S'O:6122'
p531
asg15
(lp532
S'N:967'
p533
aS'H:980'
p534
asg21
S'ARG_64_B'
p535
sg23
S'KT5_610_B'
p536
sg25
S'HBA-HBD'
p537
sbag4
(g5
g6
Ntp538
Rp539
(dp540
g10
(lp541
S'O:6148'
p542
asg15
(lp543
S'N:2183'
p544
aS'H:2191'
p545
asg21
S'ASP_144_B'
p546
sg23
S'KT5_610_B'
p547
sg25
S'HBA-HBD'
p548
sbass.